
ping_pong.elf:     file format elf32-avr

Sections:
Idx Name          Size      VMA       LMA       File off  Algn
  0 .data         00000074  00800100  00001132  000011c6  2**0
                  CONTENTS, ALLOC, LOAD, DATA
  1 .text         00001132  00000000  00000000  00000094  2**1
                  CONTENTS, ALLOC, LOAD, READONLY, CODE
  2 .bss          00000011  00800174  00800174  0000123a  2**0
                  ALLOC
  3 .comment      0000005c  00000000  00000000  0000123a  2**0
                  CONTENTS, READONLY
  4 .note.gnu.avr.deviceinfo 0000003c  00000000  00000000  00001298  2**2
                  CONTENTS, READONLY
  5 .debug_aranges 00000228  00000000  00000000  000012d4  2**0
                  CONTENTS, READONLY, DEBUGGING
  6 .debug_info   000021af  00000000  00000000  000014fc  2**0
                  CONTENTS, READONLY, DEBUGGING
  7 .debug_abbrev 0000110f  00000000  00000000  000036ab  2**0
                  CONTENTS, READONLY, DEBUGGING
  8 .debug_line   000011c4  00000000  00000000  000047ba  2**0
                  CONTENTS, READONLY, DEBUGGING
  9 .debug_frame  00000454  00000000  00000000  00005980  2**2
                  CONTENTS, READONLY, DEBUGGING
 10 .debug_str    000007e0  00000000  00000000  00005dd4  2**0
                  CONTENTS, READONLY, DEBUGGING
 11 .debug_loc    00000b74  00000000  00000000  000065b4  2**0
                  CONTENTS, READONLY, DEBUGGING
 12 .debug_ranges 000001b0  00000000  00000000  00007128  2**0
                  CONTENTS, READONLY, DEBUGGING

Disassembly of section .text:

00000000 <__vectors>:
       0:	0c 94 38 00 	jmp	0x70	; 0x70 <__ctors_end>
       4:	0c 94 55 00 	jmp	0xaa	; 0xaa <__bad_interrupt>
       8:	0c 94 55 00 	jmp	0xaa	; 0xaa <__bad_interrupt>
       c:	0c 94 55 00 	jmp	0xaa	; 0xaa <__bad_interrupt>
      10:	0c 94 55 00 	jmp	0xaa	; 0xaa <__bad_interrupt>
      14:	0c 94 55 00 	jmp	0xaa	; 0xaa <__bad_interrupt>
      18:	0c 94 55 00 	jmp	0xaa	; 0xaa <__bad_interrupt>
      1c:	0c 94 55 00 	jmp	0xaa	; 0xaa <__bad_interrupt>
      20:	0c 94 55 00 	jmp	0xaa	; 0xaa <__bad_interrupt>
      24:	0c 94 55 00 	jmp	0xaa	; 0xaa <__bad_interrupt>
      28:	0c 94 55 00 	jmp	0xaa	; 0xaa <__bad_interrupt>
      2c:	0c 94 55 00 	jmp	0xaa	; 0xaa <__bad_interrupt>
      30:	0c 94 55 00 	jmp	0xaa	; 0xaa <__bad_interrupt>
      34:	0c 94 55 00 	jmp	0xaa	; 0xaa <__bad_interrupt>
      38:	0c 94 55 00 	jmp	0xaa	; 0xaa <__bad_interrupt>
      3c:	0c 94 55 00 	jmp	0xaa	; 0xaa <__bad_interrupt>
      40:	0c 94 55 00 	jmp	0xaa	; 0xaa <__bad_interrupt>
      44:	0c 94 55 00 	jmp	0xaa	; 0xaa <__bad_interrupt>
      48:	0c 94 55 00 	jmp	0xaa	; 0xaa <__bad_interrupt>
      4c:	0c 94 55 00 	jmp	0xaa	; 0xaa <__bad_interrupt>
      50:	0c 94 55 00 	jmp	0xaa	; 0xaa <__bad_interrupt>
      54:	0c 94 55 00 	jmp	0xaa	; 0xaa <__bad_interrupt>
      58:	0c 94 55 00 	jmp	0xaa	; 0xaa <__bad_interrupt>
      5c:	0c 94 55 00 	jmp	0xaa	; 0xaa <__bad_interrupt>
      60:	0c 94 55 00 	jmp	0xaa	; 0xaa <__bad_interrupt>
      64:	0c 94 55 00 	jmp	0xaa	; 0xaa <__bad_interrupt>
      68:	0c 94 55 00 	jmp	0xaa	; 0xaa <__bad_interrupt>
      6c:	0c 94 55 00 	jmp	0xaa	; 0xaa <__bad_interrupt>

00000070 <__ctors_end>:
      70:	11 24       	eor	r1, r1
      72:	1f be       	out	0x3f, r1	; 63
      74:	cf ef       	ldi	r28, 0xFF	; 255
      76:	d4 e0       	ldi	r29, 0x04	; 4
      78:	de bf       	out	0x3e, r29	; 62
      7a:	cd bf       	out	0x3d, r28	; 61

0000007c <__do_copy_data>:
      7c:	11 e0       	ldi	r17, 0x01	; 1
      7e:	a0 e0       	ldi	r26, 0x00	; 0
      80:	b1 e0       	ldi	r27, 0x01	; 1
      82:	e2 e3       	ldi	r30, 0x32	; 50
      84:	f1 e1       	ldi	r31, 0x11	; 17
      86:	02 c0       	rjmp	.+4      	; 0x8c <__do_copy_data+0x10>
      88:	05 90       	lpm	r0, Z+
      8a:	0d 92       	st	X+, r0
      8c:	a4 37       	cpi	r26, 0x74	; 116
      8e:	b1 07       	cpc	r27, r17
      90:	d9 f7       	brne	.-10     	; 0x88 <__do_copy_data+0xc>

00000092 <__do_clear_bss>:
      92:	21 e0       	ldi	r18, 0x01	; 1
      94:	a4 e7       	ldi	r26, 0x74	; 116
      96:	b1 e0       	ldi	r27, 0x01	; 1
      98:	01 c0       	rjmp	.+2      	; 0x9c <.do_clear_bss_start>

0000009a <.do_clear_bss_loop>:
      9a:	1d 92       	st	X+, r1

0000009c <.do_clear_bss_start>:
      9c:	a5 38       	cpi	r26, 0x85	; 133
      9e:	b2 07       	cpc	r27, r18
      a0:	e1 f7       	brne	.-8      	; 0x9a <.do_clear_bss_loop>
      a2:	0e 94 9b 02 	call	0x536	; 0x536 <main>
      a6:	0c 94 97 08 	jmp	0x112e	; 0x112e <_exit>

000000aa <__bad_interrupt>:
      aa:	0c 94 00 00 	jmp	0	; 0x0 <__vectors>

000000ae <ADC_Init>:
#include <util/delay.h>

#include "ADC.h"

void ADC_Init() {
	DDRB = (1 << DDB1);
      ae:	82 e0       	ldi	r24, 0x02	; 2
      b0:	87 bb       	out	0x17, r24	; 23
	OCR2 = 128;
      b2:	80 e8       	ldi	r24, 0x80	; 128
      b4:	82 bd       	out	0x22, r24	; 34
	TCCR2 |= (1 << COM21);
      b6:	87 b5       	in	r24, 0x27	; 39
      b8:	80 62       	ori	r24, 0x20	; 32
      ba:	87 bd       	out	0x27, r24	; 39
	TCCR2 |= (1 << WGM21) | (1 << WGM20);
      bc:	87 b5       	in	r24, 0x27	; 39
      be:	88 64       	ori	r24, 0x48	; 72
      c0:	87 bd       	out	0x27, r24	; 39
	TCCR2 |= (1 << CS20);
      c2:	87 b5       	in	r24, 0x27	; 39
      c4:	81 60       	ori	r24, 0x01	; 1
      c6:	87 bd       	out	0x27, r24	; 39
      c8:	08 95       	ret

000000ca <ADC_Read>:
}

int ADC_Read (int channel) {
	volatile char * ext_mem = ( char *) 0x0000 ;
	ext_mem [ 0x1400 ]= 1;
      ca:	21 e0       	ldi	r18, 0x01	; 1
      cc:	20 93 00 14 	sts	0x1400, r18	; 0x801400 <__bss_end+0x127b>
	int Tconv = (9*4*2)/4912000;
	_delay_ms(Tconv);

	int  value=0;
	
	for (int i=0;i<4;i++){
      d0:	20 e0       	ldi	r18, 0x00	; 0
      d2:	30 e0       	ldi	r19, 0x00	; 0
	volatile char * ext_mem = ( char *) 0x0000 ;
	ext_mem [ 0x1400 ]= 1;
	int Tconv = (9*4*2)/4912000;
	_delay_ms(Tconv);

	int  value=0;
      d4:	60 e0       	ldi	r22, 0x00	; 0
      d6:	70 e0       	ldi	r23, 0x00	; 0
	
	for (int i=0;i<4;i++){
      d8:	0c c0       	rjmp	.+24     	; 0xf2 <ADC_Read+0x28>
		uint8_t  read = ext_mem[0x1400];
      da:	40 91 00 14 	lds	r20, 0x1400	; 0x801400 <__bss_end+0x127b>
	#else
		//round up by default
		__ticks_dc = (uint32_t)(ceil(fabs(__tmp)));
	#endif

	__builtin_avr_delay_cycles(__ticks_dc);
      de:	5c e3       	ldi	r21, 0x3C	; 60
      e0:	5a 95       	dec	r21
      e2:	f1 f7       	brne	.-4      	; 0xe0 <ADC_Read+0x16>
		_delay_ms(0.18);
		if (i == channel){
      e4:	28 17       	cp	r18, r24
      e6:	39 07       	cpc	r19, r25
      e8:	11 f4       	brne	.+4      	; 0xee <ADC_Read+0x24>
			 value = read;
      ea:	64 2f       	mov	r22, r20
      ec:	70 e0       	ldi	r23, 0x00	; 0
	int Tconv = (9*4*2)/4912000;
	_delay_ms(Tconv);

	int  value=0;
	
	for (int i=0;i<4;i++){
      ee:	2f 5f       	subi	r18, 0xFF	; 255
      f0:	3f 4f       	sbci	r19, 0xFF	; 255
      f2:	24 30       	cpi	r18, 0x04	; 4
      f4:	31 05       	cpc	r19, r1
      f6:	8c f3       	brlt	.-30     	; 0xda <ADC_Read+0x10>
		if (i == channel){
			 value = read;
		}
	}
	return value;
}
      f8:	cb 01       	movw	r24, r22
      fa:	08 95       	ret

000000fc <can_init>:
#include "mcp2515.h"
#include "SPI.h"


void can_init() {
	mcp_init();
      fc:	0e 94 52 03 	call	0x6a4	; 0x6a4 <mcp_init>
	mcp_write(MCP_CNF3, 0x05);
     100:	65 e0       	ldi	r22, 0x05	; 5
     102:	88 e2       	ldi	r24, 0x28	; 40
     104:	0e 94 09 03 	call	0x612	; 0x612 <mcp_write>
	mcp_write(MCP_CNF2, 0xb1);
     108:	61 eb       	ldi	r22, 0xB1	; 177
     10a:	89 e2       	ldi	r24, 0x29	; 41
     10c:	0e 94 09 03 	call	0x612	; 0x612 <mcp_write>
	mcp_write(MCP_CNF1, 0x03);
     110:	63 e0       	ldi	r22, 0x03	; 3
     112:	8a e2       	ldi	r24, 0x2A	; 42
     114:	0e 94 09 03 	call	0x612	; 0x612 <mcp_write>
	
	mcp_bit_modify(MCP_CANCTRL, MODE_MASK, MODE_NORMAL);
     118:	40 e0       	ldi	r20, 0x00	; 0
     11a:	60 ee       	ldi	r22, 0xE0	; 224
     11c:	8f e0       	ldi	r24, 0x0F	; 15
     11e:	0e 94 68 03 	call	0x6d0	; 0x6d0 <mcp_bit_modify>
     122:	08 95       	ret

00000124 <can_send>:
}

	
void can_send(can_message* message) { 
     124:	0f 93       	push	r16
     126:	1f 93       	push	r17
     128:	cf 93       	push	r28
     12a:	df 93       	push	r29
     12c:	8c 01       	movw	r16, r24
	mcp_write(MCP_TXB0SIDH, message->id >> 3);
     12e:	fc 01       	movw	r30, r24
     130:	60 81       	ld	r22, Z
     132:	71 81       	ldd	r23, Z+1	; 0x01
     134:	76 95       	lsr	r23
     136:	67 95       	ror	r22
     138:	76 95       	lsr	r23
     13a:	67 95       	ror	r22
     13c:	76 95       	lsr	r23
     13e:	67 95       	ror	r22
     140:	81 e3       	ldi	r24, 0x31	; 49
     142:	0e 94 09 03 	call	0x612	; 0x612 <mcp_write>
	mcp_write(MCP_TXB0SIDL, message->id << 5);
     146:	f8 01       	movw	r30, r16
     148:	60 81       	ld	r22, Z
     14a:	62 95       	swap	r22
     14c:	66 0f       	add	r22, r22
     14e:	60 7e       	andi	r22, 0xE0	; 224
     150:	82 e3       	ldi	r24, 0x32	; 50
     152:	0e 94 09 03 	call	0x612	; 0x612 <mcp_write>
	mcp_write(MCP_TXB0DLC, message->length);
     156:	f8 01       	movw	r30, r16
     158:	62 81       	ldd	r22, Z+2	; 0x02
     15a:	85 e3       	ldi	r24, 0x35	; 53
     15c:	0e 94 09 03 	call	0x612	; 0x612 <mcp_write>
	
	for(int i = 0; i < message->length; i++) {
     160:	c0 e0       	ldi	r28, 0x00	; 0
     162:	d0 e0       	ldi	r29, 0x00	; 0
     164:	09 c0       	rjmp	.+18     	; 0x178 <can_send+0x54>
		mcp_write(MCP_TXB0D0 + (uint8_t)i, message->data[i]);
     166:	f8 01       	movw	r30, r16
     168:	ec 0f       	add	r30, r28
     16a:	fd 1f       	adc	r31, r29
     16c:	63 81       	ldd	r22, Z+3	; 0x03
     16e:	8c 2f       	mov	r24, r28
     170:	8a 5c       	subi	r24, 0xCA	; 202
     172:	0e 94 09 03 	call	0x612	; 0x612 <mcp_write>
void can_send(can_message* message) { 
	mcp_write(MCP_TXB0SIDH, message->id >> 3);
	mcp_write(MCP_TXB0SIDL, message->id << 5);
	mcp_write(MCP_TXB0DLC, message->length);
	
	for(int i = 0; i < message->length; i++) {
     176:	21 96       	adiw	r28, 0x01	; 1
     178:	f8 01       	movw	r30, r16
     17a:	82 81       	ldd	r24, Z+2	; 0x02
     17c:	90 e0       	ldi	r25, 0x00	; 0
     17e:	c8 17       	cp	r28, r24
     180:	d9 07       	cpc	r29, r25
     182:	8c f3       	brlt	.-30     	; 0x166 <can_send+0x42>
		mcp_write(MCP_TXB0D0 + (uint8_t)i, message->data[i]);
	}
	
	mcp_request_send(0);
     184:	80 e0       	ldi	r24, 0x00	; 0
     186:	90 e0       	ldi	r25, 0x00	; 0
     188:	0e 94 1f 03 	call	0x63e	; 0x63e <mcp_request_send>
}
     18c:	df 91       	pop	r29
     18e:	cf 91       	pop	r28
     190:	1f 91       	pop	r17
     192:	0f 91       	pop	r16
     194:	08 95       	ret

00000196 <joystick_calibrate>:
#include "ADC.h"
#include "CAN.h"

volatile joystick_pos mean_pos;

joystick_pos joystick_calibrate(){
     196:	0f 93       	push	r16
     198:	1f 93       	push	r17
     19a:	cf 93       	push	r28
     19c:	df 93       	push	r29
     19e:	00 d0       	rcall	.+0      	; 0x1a0 <joystick_calibrate+0xa>
     1a0:	00 d0       	rcall	.+0      	; 0x1a2 <joystick_calibrate+0xc>
     1a2:	1f 92       	push	r1
     1a4:	cd b7       	in	r28, 0x3d	; 61
     1a6:	de b7       	in	r29, 0x3e	; 62
	mean_pos.x = ADC_Read(1);
     1a8:	81 e0       	ldi	r24, 0x01	; 1
     1aa:	90 e0       	ldi	r25, 0x00	; 0
     1ac:	0e 94 65 00 	call	0xca	; 0xca <ADC_Read>
     1b0:	04 e7       	ldi	r16, 0x74	; 116
     1b2:	11 e0       	ldi	r17, 0x01	; 1
     1b4:	f8 01       	movw	r30, r16
     1b6:	80 83       	st	Z, r24
	mean_pos.y = ADC_Read(0);
     1b8:	80 e0       	ldi	r24, 0x00	; 0
     1ba:	90 e0       	ldi	r25, 0x00	; 0
     1bc:	0e 94 65 00 	call	0xca	; 0xca <ADC_Read>
     1c0:	f8 01       	movw	r30, r16
     1c2:	81 83       	std	Z+1, r24	; 0x01
	
	return mean_pos;
     1c4:	85 e0       	ldi	r24, 0x05	; 5
     1c6:	de 01       	movw	r26, r28
     1c8:	11 96       	adiw	r26, 0x01	; 1
     1ca:	01 90       	ld	r0, Z+
     1cc:	0d 92       	st	X+, r0
     1ce:	8a 95       	dec	r24
     1d0:	e1 f7       	brne	.-8      	; 0x1ca <joystick_calibrate+0x34>
     1d2:	29 81       	ldd	r18, Y+1	; 0x01
     1d4:	3a 81       	ldd	r19, Y+2	; 0x02
     1d6:	4b 81       	ldd	r20, Y+3	; 0x03
     1d8:	5c 81       	ldd	r21, Y+4	; 0x04
     1da:	6d 81       	ldd	r22, Y+5	; 0x05
}
     1dc:	70 e0       	ldi	r23, 0x00	; 0
     1de:	80 e0       	ldi	r24, 0x00	; 0
     1e0:	90 e0       	ldi	r25, 0x00	; 0
     1e2:	0f 90       	pop	r0
     1e4:	0f 90       	pop	r0
     1e6:	0f 90       	pop	r0
     1e8:	0f 90       	pop	r0
     1ea:	0f 90       	pop	r0
     1ec:	df 91       	pop	r29
     1ee:	cf 91       	pop	r28
     1f0:	1f 91       	pop	r17
     1f2:	0f 91       	pop	r16
     1f4:	08 95       	ret

000001f6 <get_joystick_dir>:
	}

	return pos;
}

joystick_dir get_joystick_dir() {
     1f6:	cf 93       	push	r28
	joystick_dir dir;
	joystick_pos pos;
	
	pos.x = ADC_Read(1);
     1f8:	81 e0       	ldi	r24, 0x01	; 1
     1fa:	90 e0       	ldi	r25, 0x00	; 0
     1fc:	0e 94 65 00 	call	0xca	; 0xca <ADC_Read>
     200:	c8 2f       	mov	r28, r24
	pos.y = ADC_Read(0);
     202:	80 e0       	ldi	r24, 0x00	; 0
     204:	90 e0       	ldi	r25, 0x00	; 0
     206:	0e 94 65 00 	call	0xca	; 0xca <ADC_Read>
	
	dir = NEUTRAL;
	
	
	if (abs(mean_pos.x - pos.x) < 15 & abs(mean_pos.y - pos.y) < 15) {
     20a:	20 91 74 01 	lds	r18, 0x0174	; 0x800174 <__data_end>
     20e:	6c 2f       	mov	r22, r28
     210:	70 e0       	ldi	r23, 0x00	; 0
     212:	30 e0       	ldi	r19, 0x00	; 0
     214:	26 1b       	sub	r18, r22
     216:	37 0b       	sbc	r19, r23
     218:	a9 01       	movw	r20, r18
     21a:	22 f4       	brpl	.+8      	; 0x224 <__EEPROM_REGION_LENGTH__+0x24>
     21c:	44 27       	eor	r20, r20
     21e:	55 27       	eor	r21, r21
     220:	42 1b       	sub	r20, r18
     222:	53 0b       	sbc	r21, r19
     224:	fa 01       	movw	r30, r20
     226:	20 91 75 01 	lds	r18, 0x0175	; 0x800175 <__data_end+0x1>
     22a:	a8 2f       	mov	r26, r24
     22c:	b0 e0       	ldi	r27, 0x00	; 0
     22e:	30 e0       	ldi	r19, 0x00	; 0
     230:	2a 1b       	sub	r18, r26
     232:	3b 0b       	sbc	r19, r27
     234:	a9 01       	movw	r20, r18
     236:	22 f4       	brpl	.+8      	; 0x240 <__EEPROM_REGION_LENGTH__+0x40>
     238:	44 27       	eor	r20, r20
     23a:	55 27       	eor	r21, r21
     23c:	42 1b       	sub	r20, r18
     23e:	53 0b       	sbc	r21, r19
     240:	21 e0       	ldi	r18, 0x01	; 1
     242:	3f 97       	sbiw	r30, 0x0f	; 15
     244:	0c f0       	brlt	.+2      	; 0x248 <__EEPROM_REGION_LENGTH__+0x48>
     246:	20 e0       	ldi	r18, 0x00	; 0
     248:	91 e0       	ldi	r25, 0x01	; 1
     24a:	4f 30       	cpi	r20, 0x0F	; 15
     24c:	51 05       	cpc	r21, r1
     24e:	0c f0       	brlt	.+2      	; 0x252 <__EEPROM_REGION_LENGTH__+0x52>
     250:	90 e0       	ldi	r25, 0x00	; 0
     252:	92 23       	and	r25, r18
     254:	19 f5       	brne	.+70     	; 0x29c <__EEPROM_REGION_LENGTH__+0x9c>
		return NEUTRAL;
	} else {
		if (abs(pos.x - mean_pos.x) > abs(pos.y - mean_pos.y)) {
     256:	90 91 74 01 	lds	r25, 0x0174	; 0x800174 <__data_end>
     25a:	69 1b       	sub	r22, r25
     25c:	71 09       	sbc	r23, r1
     25e:	9b 01       	movw	r18, r22
     260:	22 f4       	brpl	.+8      	; 0x26a <__EEPROM_REGION_LENGTH__+0x6a>
     262:	22 27       	eor	r18, r18
     264:	33 27       	eor	r19, r19
     266:	26 1b       	sub	r18, r22
     268:	37 0b       	sbc	r19, r23
     26a:	90 91 75 01 	lds	r25, 0x0175	; 0x800175 <__data_end+0x1>
     26e:	a9 1b       	sub	r26, r25
     270:	b1 09       	sbc	r27, r1
     272:	ad 01       	movw	r20, r26
     274:	22 f4       	brpl	.+8      	; 0x27e <__EEPROM_REGION_LENGTH__+0x7e>
     276:	44 27       	eor	r20, r20
     278:	55 27       	eor	r21, r21
     27a:	4a 1b       	sub	r20, r26
     27c:	5b 0b       	sbc	r21, r27
     27e:	42 17       	cp	r20, r18
     280:	53 07       	cpc	r21, r19
     282:	34 f4       	brge	.+12     	; 0x290 <__EEPROM_REGION_LENGTH__+0x90>
			if (pos.x > mean_pos.x) {
     284:	80 91 74 01 	lds	r24, 0x0174	; 0x800174 <__data_end>
     288:	8c 17       	cp	r24, r28
     28a:	50 f4       	brcc	.+20     	; 0x2a0 <__EEPROM_REGION_LENGTH__+0xa0>
				return RIGHT;
     28c:	83 e0       	ldi	r24, 0x03	; 3
     28e:	0b c0       	rjmp	.+22     	; 0x2a6 <__EEPROM_REGION_LENGTH__+0xa6>
			} else {
				return LEFT;
			}
		} else {
			if (pos.y > mean_pos.y) {
     290:	90 91 75 01 	lds	r25, 0x0175	; 0x800175 <__data_end+0x1>
     294:	98 17       	cp	r25, r24
     296:	30 f4       	brcc	.+12     	; 0x2a4 <__EEPROM_REGION_LENGTH__+0xa4>
				return UP;
     298:	80 e0       	ldi	r24, 0x00	; 0
     29a:	05 c0       	rjmp	.+10     	; 0x2a6 <__EEPROM_REGION_LENGTH__+0xa6>
	
	dir = NEUTRAL;
	
	
	if (abs(mean_pos.x - pos.x) < 15 & abs(mean_pos.y - pos.y) < 15) {
		return NEUTRAL;
     29c:	84 e0       	ldi	r24, 0x04	; 4
     29e:	03 c0       	rjmp	.+6      	; 0x2a6 <__EEPROM_REGION_LENGTH__+0xa6>
	} else {
		if (abs(pos.x - mean_pos.x) > abs(pos.y - mean_pos.y)) {
			if (pos.x > mean_pos.x) {
				return RIGHT;
			} else {
				return LEFT;
     2a0:	82 e0       	ldi	r24, 0x02	; 2
     2a2:	01 c0       	rjmp	.+2      	; 0x2a6 <__EEPROM_REGION_LENGTH__+0xa6>
			}
		} else {
			if (pos.y > mean_pos.y) {
				return UP;
			} else {
				return DOWN;
     2a4:	81 e0       	ldi	r24, 0x01	; 1
		}
	}
	
	return dir;
	
}
     2a6:	cf 91       	pop	r28
     2a8:	08 95       	ret

000002aa <get_joystick_pos>:
	mean_pos.y = ADC_Read(0);
	
	return mean_pos;
}

joystick_pos get_joystick_pos(){
     2aa:	cf 93       	push	r28
     2ac:	df 93       	push	r29
     2ae:	cd b7       	in	r28, 0x3d	; 61
     2b0:	de b7       	in	r29, 0x3e	; 62
     2b2:	2a 97       	sbiw	r28, 0x0a	; 10
     2b4:	0f b6       	in	r0, 0x3f	; 63
     2b6:	f8 94       	cli
     2b8:	de bf       	out	0x3e, r29	; 62
     2ba:	0f be       	out	0x3f, r0	; 63
     2bc:	cd bf       	out	0x3d, r28	; 61
	joystick_pos pos;
	joystick_dir dir;
	
	dir = get_joystick_dir();
     2be:	0e 94 fb 00 	call	0x1f6	; 0x1f6 <get_joystick_dir>
	
	switch (dir)
     2c2:	82 30       	cpi	r24, 0x02	; 2
     2c4:	09 f4       	brne	.+2      	; 0x2c8 <get_joystick_pos+0x1e>
     2c6:	89 c0       	rjmp	.+274    	; 0x3da <get_joystick_pos+0x130>
     2c8:	30 f4       	brcc	.+12     	; 0x2d6 <get_joystick_pos+0x2c>
     2ca:	88 23       	and	r24, r24
     2cc:	59 f0       	breq	.+22     	; 0x2e4 <get_joystick_pos+0x3a>
     2ce:	81 30       	cpi	r24, 0x01	; 1
     2d0:	09 f4       	brne	.+2      	; 0x2d4 <get_joystick_pos+0x2a>
     2d2:	c7 c0       	rjmp	.+398    	; 0x462 <__DATA_REGION_LENGTH__+0x62>
     2d4:	0e c1       	rjmp	.+540    	; 0x4f2 <__DATA_REGION_LENGTH__+0xf2>
     2d6:	83 30       	cpi	r24, 0x03	; 3
     2d8:	09 f4       	brne	.+2      	; 0x2dc <get_joystick_pos+0x32>
     2da:	41 c0       	rjmp	.+130    	; 0x35e <get_joystick_pos+0xb4>
     2dc:	84 30       	cpi	r24, 0x04	; 4
     2de:	09 f4       	brne	.+2      	; 0x2e2 <get_joystick_pos+0x38>
     2e0:	04 c1       	rjmp	.+520    	; 0x4ea <__DATA_REGION_LENGTH__+0xea>
     2e2:	07 c1       	rjmp	.+526    	; 0x4f2 <__DATA_REGION_LENGTH__+0xf2>
	{
	case UP:
		pos.y = (int)abs(((ADC_Read(0) - mean_pos.y) * 100) / (255 - mean_pos.y));
     2e4:	80 e0       	ldi	r24, 0x00	; 0
     2e6:	90 e0       	ldi	r25, 0x00	; 0
     2e8:	0e 94 65 00 	call	0xca	; 0xca <ADC_Read>
     2ec:	e4 e7       	ldi	r30, 0x74	; 116
     2ee:	f1 e0       	ldi	r31, 0x01	; 1
     2f0:	21 81       	ldd	r18, Z+1	; 0x01
     2f2:	82 1b       	sub	r24, r18
     2f4:	91 09       	sbc	r25, r1
     2f6:	9c 01       	movw	r18, r24
     2f8:	44 e6       	ldi	r20, 0x64	; 100
     2fa:	42 9f       	mul	r20, r18
     2fc:	c0 01       	movw	r24, r0
     2fe:	43 9f       	mul	r20, r19
     300:	90 0d       	add	r25, r0
     302:	11 24       	eor	r1, r1
     304:	21 81       	ldd	r18, Z+1	; 0x01
     306:	6f ef       	ldi	r22, 0xFF	; 255
     308:	70 e0       	ldi	r23, 0x00	; 0
     30a:	62 1b       	sub	r22, r18
     30c:	71 09       	sbc	r23, r1
     30e:	0e 94 02 04 	call	0x804	; 0x804 <__divmodhi4>
     312:	cb 01       	movw	r24, r22
     314:	99 23       	and	r25, r25
     316:	24 f4       	brge	.+8      	; 0x320 <get_joystick_pos+0x76>
     318:	88 27       	eor	r24, r24
     31a:	99 27       	eor	r25, r25
     31c:	86 1b       	sub	r24, r22
     31e:	97 0b       	sbc	r25, r23
     320:	8f 83       	std	Y+7, r24	; 0x07
		pos.x = (int)abs(((ADC_Read(1) - mean_pos.x) * 100) / mean_pos.x);
     322:	81 e0       	ldi	r24, 0x01	; 1
     324:	90 e0       	ldi	r25, 0x00	; 0
     326:	0e 94 65 00 	call	0xca	; 0xca <ADC_Read>
     32a:	e4 e7       	ldi	r30, 0x74	; 116
     32c:	f1 e0       	ldi	r31, 0x01	; 1
     32e:	20 81       	ld	r18, Z
     330:	82 1b       	sub	r24, r18
     332:	91 09       	sbc	r25, r1
     334:	9c 01       	movw	r18, r24
     336:	44 e6       	ldi	r20, 0x64	; 100
     338:	42 9f       	mul	r20, r18
     33a:	c0 01       	movw	r24, r0
     33c:	43 9f       	mul	r20, r19
     33e:	90 0d       	add	r25, r0
     340:	11 24       	eor	r1, r1
     342:	60 81       	ld	r22, Z
     344:	70 e0       	ldi	r23, 0x00	; 0
     346:	0e 94 02 04 	call	0x804	; 0x804 <__divmodhi4>
     34a:	cb 01       	movw	r24, r22
     34c:	99 23       	and	r25, r25
     34e:	24 f4       	brge	.+8      	; 0x358 <get_joystick_pos+0xae>
     350:	88 27       	eor	r24, r24
     352:	99 27       	eor	r25, r25
     354:	86 1b       	sub	r24, r22
     356:	97 0b       	sbc	r25, r23
     358:	8e 83       	std	Y+6, r24	; 0x06
		pos.dir = UP;
     35a:	18 86       	std	Y+8, r1	; 0x08
		break;
     35c:	ca c0       	rjmp	.+404    	; 0x4f2 <__DATA_REGION_LENGTH__+0xf2>
	case RIGHT:
		pos.x = (int)abs(((ADC_Read(1) - mean_pos.x) * 100) / (255 - mean_pos.x));
     35e:	81 e0       	ldi	r24, 0x01	; 1
     360:	90 e0       	ldi	r25, 0x00	; 0
     362:	0e 94 65 00 	call	0xca	; 0xca <ADC_Read>
     366:	e4 e7       	ldi	r30, 0x74	; 116
     368:	f1 e0       	ldi	r31, 0x01	; 1
     36a:	20 81       	ld	r18, Z
     36c:	82 1b       	sub	r24, r18
     36e:	91 09       	sbc	r25, r1
     370:	9c 01       	movw	r18, r24
     372:	44 e6       	ldi	r20, 0x64	; 100
     374:	42 9f       	mul	r20, r18
     376:	c0 01       	movw	r24, r0
     378:	43 9f       	mul	r20, r19
     37a:	90 0d       	add	r25, r0
     37c:	11 24       	eor	r1, r1
     37e:	20 81       	ld	r18, Z
     380:	6f ef       	ldi	r22, 0xFF	; 255
     382:	70 e0       	ldi	r23, 0x00	; 0
     384:	62 1b       	sub	r22, r18
     386:	71 09       	sbc	r23, r1
     388:	0e 94 02 04 	call	0x804	; 0x804 <__divmodhi4>
     38c:	cb 01       	movw	r24, r22
     38e:	99 23       	and	r25, r25
     390:	24 f4       	brge	.+8      	; 0x39a <get_joystick_pos+0xf0>
     392:	88 27       	eor	r24, r24
     394:	99 27       	eor	r25, r25
     396:	86 1b       	sub	r24, r22
     398:	97 0b       	sbc	r25, r23
     39a:	8e 83       	std	Y+6, r24	; 0x06
		pos.y = (int)abs(((ADC_Read(0) - mean_pos.y) * 100) / mean_pos.y);
     39c:	80 e0       	ldi	r24, 0x00	; 0
     39e:	90 e0       	ldi	r25, 0x00	; 0
     3a0:	0e 94 65 00 	call	0xca	; 0xca <ADC_Read>
     3a4:	e4 e7       	ldi	r30, 0x74	; 116
     3a6:	f1 e0       	ldi	r31, 0x01	; 1
     3a8:	21 81       	ldd	r18, Z+1	; 0x01
     3aa:	82 1b       	sub	r24, r18
     3ac:	91 09       	sbc	r25, r1
     3ae:	9c 01       	movw	r18, r24
     3b0:	44 e6       	ldi	r20, 0x64	; 100
     3b2:	42 9f       	mul	r20, r18
     3b4:	c0 01       	movw	r24, r0
     3b6:	43 9f       	mul	r20, r19
     3b8:	90 0d       	add	r25, r0
     3ba:	11 24       	eor	r1, r1
     3bc:	61 81       	ldd	r22, Z+1	; 0x01
     3be:	70 e0       	ldi	r23, 0x00	; 0
     3c0:	0e 94 02 04 	call	0x804	; 0x804 <__divmodhi4>
     3c4:	cb 01       	movw	r24, r22
     3c6:	99 23       	and	r25, r25
     3c8:	24 f4       	brge	.+8      	; 0x3d2 <get_joystick_pos+0x128>
     3ca:	88 27       	eor	r24, r24
     3cc:	99 27       	eor	r25, r25
     3ce:	86 1b       	sub	r24, r22
     3d0:	97 0b       	sbc	r25, r23
     3d2:	8f 83       	std	Y+7, r24	; 0x07
		pos.dir = RIGHT;
     3d4:	83 e0       	ldi	r24, 0x03	; 3
     3d6:	88 87       	std	Y+8, r24	; 0x08
		break;
     3d8:	8c c0       	rjmp	.+280    	; 0x4f2 <__DATA_REGION_LENGTH__+0xf2>
	case LEFT:
		pos.x = (int)abs(((ADC_Read(1) - mean_pos.x) * 100) / abs(3 - mean_pos.x));
     3da:	81 e0       	ldi	r24, 0x01	; 1
     3dc:	90 e0       	ldi	r25, 0x00	; 0
     3de:	0e 94 65 00 	call	0xca	; 0xca <ADC_Read>
     3e2:	e4 e7       	ldi	r30, 0x74	; 116
     3e4:	f1 e0       	ldi	r31, 0x01	; 1
     3e6:	20 81       	ld	r18, Z
     3e8:	82 1b       	sub	r24, r18
     3ea:	91 09       	sbc	r25, r1
     3ec:	9c 01       	movw	r18, r24
     3ee:	44 e6       	ldi	r20, 0x64	; 100
     3f0:	42 9f       	mul	r20, r18
     3f2:	c0 01       	movw	r24, r0
     3f4:	43 9f       	mul	r20, r19
     3f6:	90 0d       	add	r25, r0
     3f8:	11 24       	eor	r1, r1
     3fa:	40 81       	ld	r20, Z
     3fc:	23 e0       	ldi	r18, 0x03	; 3
     3fe:	30 e0       	ldi	r19, 0x00	; 0
     400:	24 1b       	sub	r18, r20
     402:	31 09       	sbc	r19, r1
     404:	b9 01       	movw	r22, r18
     406:	22 f4       	brpl	.+8      	; 0x410 <__DATA_REGION_LENGTH__+0x10>
     408:	66 27       	eor	r22, r22
     40a:	77 27       	eor	r23, r23
     40c:	62 1b       	sub	r22, r18
     40e:	73 0b       	sbc	r23, r19
     410:	0e 94 02 04 	call	0x804	; 0x804 <__divmodhi4>
     414:	cb 01       	movw	r24, r22
     416:	99 23       	and	r25, r25
     418:	24 f4       	brge	.+8      	; 0x422 <__DATA_REGION_LENGTH__+0x22>
     41a:	88 27       	eor	r24, r24
     41c:	99 27       	eor	r25, r25
     41e:	86 1b       	sub	r24, r22
     420:	97 0b       	sbc	r25, r23
     422:	8e 83       	std	Y+6, r24	; 0x06
		pos.y = (int)abs(((ADC_Read(0) - mean_pos.y) * 100) / mean_pos.y);
     424:	80 e0       	ldi	r24, 0x00	; 0
     426:	90 e0       	ldi	r25, 0x00	; 0
     428:	0e 94 65 00 	call	0xca	; 0xca <ADC_Read>
     42c:	e4 e7       	ldi	r30, 0x74	; 116
     42e:	f1 e0       	ldi	r31, 0x01	; 1
     430:	21 81       	ldd	r18, Z+1	; 0x01
     432:	82 1b       	sub	r24, r18
     434:	91 09       	sbc	r25, r1
     436:	9c 01       	movw	r18, r24
     438:	44 e6       	ldi	r20, 0x64	; 100
     43a:	42 9f       	mul	r20, r18
     43c:	c0 01       	movw	r24, r0
     43e:	43 9f       	mul	r20, r19
     440:	90 0d       	add	r25, r0
     442:	11 24       	eor	r1, r1
     444:	61 81       	ldd	r22, Z+1	; 0x01
     446:	70 e0       	ldi	r23, 0x00	; 0
     448:	0e 94 02 04 	call	0x804	; 0x804 <__divmodhi4>
     44c:	cb 01       	movw	r24, r22
     44e:	99 23       	and	r25, r25
     450:	24 f4       	brge	.+8      	; 0x45a <__DATA_REGION_LENGTH__+0x5a>
     452:	88 27       	eor	r24, r24
     454:	99 27       	eor	r25, r25
     456:	86 1b       	sub	r24, r22
     458:	97 0b       	sbc	r25, r23
     45a:	8f 83       	std	Y+7, r24	; 0x07
		pos.dir = LEFT;
     45c:	82 e0       	ldi	r24, 0x02	; 2
     45e:	88 87       	std	Y+8, r24	; 0x08
		break;
     460:	48 c0       	rjmp	.+144    	; 0x4f2 <__DATA_REGION_LENGTH__+0xf2>
	case DOWN:
		pos.y = (int)abs(((ADC_Read(0) - mean_pos.y) * 100) / abs(3 - mean_pos.y));
     462:	80 e0       	ldi	r24, 0x00	; 0
     464:	90 e0       	ldi	r25, 0x00	; 0
     466:	0e 94 65 00 	call	0xca	; 0xca <ADC_Read>
     46a:	e4 e7       	ldi	r30, 0x74	; 116
     46c:	f1 e0       	ldi	r31, 0x01	; 1
     46e:	21 81       	ldd	r18, Z+1	; 0x01
     470:	82 1b       	sub	r24, r18
     472:	91 09       	sbc	r25, r1
     474:	9c 01       	movw	r18, r24
     476:	44 e6       	ldi	r20, 0x64	; 100
     478:	42 9f       	mul	r20, r18
     47a:	c0 01       	movw	r24, r0
     47c:	43 9f       	mul	r20, r19
     47e:	90 0d       	add	r25, r0
     480:	11 24       	eor	r1, r1
     482:	41 81       	ldd	r20, Z+1	; 0x01
     484:	23 e0       	ldi	r18, 0x03	; 3
     486:	30 e0       	ldi	r19, 0x00	; 0
     488:	24 1b       	sub	r18, r20
     48a:	31 09       	sbc	r19, r1
     48c:	b9 01       	movw	r22, r18
     48e:	22 f4       	brpl	.+8      	; 0x498 <__DATA_REGION_LENGTH__+0x98>
     490:	66 27       	eor	r22, r22
     492:	77 27       	eor	r23, r23
     494:	62 1b       	sub	r22, r18
     496:	73 0b       	sbc	r23, r19
     498:	0e 94 02 04 	call	0x804	; 0x804 <__divmodhi4>
     49c:	cb 01       	movw	r24, r22
     49e:	99 23       	and	r25, r25
     4a0:	24 f4       	brge	.+8      	; 0x4aa <__DATA_REGION_LENGTH__+0xaa>
     4a2:	88 27       	eor	r24, r24
     4a4:	99 27       	eor	r25, r25
     4a6:	86 1b       	sub	r24, r22
     4a8:	97 0b       	sbc	r25, r23
     4aa:	8f 83       	std	Y+7, r24	; 0x07
		pos.x = (int)abs(((ADC_Read(1) - mean_pos.x) * 100) / mean_pos.x);
     4ac:	81 e0       	ldi	r24, 0x01	; 1
     4ae:	90 e0       	ldi	r25, 0x00	; 0
     4b0:	0e 94 65 00 	call	0xca	; 0xca <ADC_Read>
     4b4:	e4 e7       	ldi	r30, 0x74	; 116
     4b6:	f1 e0       	ldi	r31, 0x01	; 1
     4b8:	20 81       	ld	r18, Z
     4ba:	82 1b       	sub	r24, r18
     4bc:	91 09       	sbc	r25, r1
     4be:	9c 01       	movw	r18, r24
     4c0:	44 e6       	ldi	r20, 0x64	; 100
     4c2:	42 9f       	mul	r20, r18
     4c4:	c0 01       	movw	r24, r0
     4c6:	43 9f       	mul	r20, r19
     4c8:	90 0d       	add	r25, r0
     4ca:	11 24       	eor	r1, r1
     4cc:	60 81       	ld	r22, Z
     4ce:	70 e0       	ldi	r23, 0x00	; 0
     4d0:	0e 94 02 04 	call	0x804	; 0x804 <__divmodhi4>
     4d4:	cb 01       	movw	r24, r22
     4d6:	99 23       	and	r25, r25
     4d8:	24 f4       	brge	.+8      	; 0x4e2 <__DATA_REGION_LENGTH__+0xe2>
     4da:	88 27       	eor	r24, r24
     4dc:	99 27       	eor	r25, r25
     4de:	86 1b       	sub	r24, r22
     4e0:	97 0b       	sbc	r25, r23
     4e2:	8e 83       	std	Y+6, r24	; 0x06
		pos.dir = DOWN;
     4e4:	81 e0       	ldi	r24, 0x01	; 1
     4e6:	88 87       	std	Y+8, r24	; 0x08
		break;
     4e8:	04 c0       	rjmp	.+8      	; 0x4f2 <__DATA_REGION_LENGTH__+0xf2>
	case NEUTRAL:
		pos.x = 0;
     4ea:	1e 82       	std	Y+6, r1	; 0x06
		pos.y = 0;
     4ec:	1f 82       	std	Y+7, r1	; 0x07
		pos.dir = NEUTRAL;
     4ee:	84 e0       	ldi	r24, 0x04	; 4
     4f0:	88 87       	std	Y+8, r24	; 0x08
	}

	return pos;
     4f2:	85 e0       	ldi	r24, 0x05	; 5
     4f4:	fe 01       	movw	r30, r28
     4f6:	36 96       	adiw	r30, 0x06	; 6
     4f8:	de 01       	movw	r26, r28
     4fa:	11 96       	adiw	r26, 0x01	; 1
     4fc:	01 90       	ld	r0, Z+
     4fe:	0d 92       	st	X+, r0
     500:	8a 95       	dec	r24
     502:	e1 f7       	brne	.-8      	; 0x4fc <__DATA_REGION_LENGTH__+0xfc>
     504:	29 81       	ldd	r18, Y+1	; 0x01
     506:	3a 81       	ldd	r19, Y+2	; 0x02
     508:	4b 81       	ldd	r20, Y+3	; 0x03
     50a:	5c 81       	ldd	r21, Y+4	; 0x04
     50c:	6d 81       	ldd	r22, Y+5	; 0x05
}
     50e:	70 e0       	ldi	r23, 0x00	; 0
     510:	80 e0       	ldi	r24, 0x00	; 0
     512:	90 e0       	ldi	r25, 0x00	; 0
     514:	2a 96       	adiw	r28, 0x0a	; 10
     516:	0f b6       	in	r0, 0x3f	; 63
     518:	f8 94       	cli
     51a:	de bf       	out	0x3e, r29	; 62
     51c:	0f be       	out	0x3f, r0	; 63
     51e:	cd bf       	out	0x3d, r28	; 61
     520:	df 91       	pop	r29
     522:	cf 91       	pop	r28
     524:	08 95       	ret

00000526 <joystick_button>:
	
}

int joystick_button() {
	int x = 0;
	if ((PIND & 0b00100000) != 0b00100000) {
     526:	85 9b       	sbis	0x10, 5	; 16
     528:	03 c0       	rjmp	.+6      	; 0x530 <joystick_button+0xa>
	return dir;
	
}

int joystick_button() {
	int x = 0;
     52a:	80 e0       	ldi	r24, 0x00	; 0
     52c:	90 e0       	ldi	r25, 0x00	; 0
     52e:	08 95       	ret
	if ((PIND & 0b00100000) != 0b00100000) {
		x = 1;
     530:	81 e0       	ldi	r24, 0x01	; 1
     532:	90 e0       	ldi	r25, 0x00	; 0
		
	}
	return x;
}
     534:	08 95       	ret

00000536 <main>:
#define FOSC 4915200// Clock Speed
#define BAUD 9600
#define MYUBRR FOSC/16/BAUD-1

int main(void)
{
     536:	cf 93       	push	r28
     538:	df 93       	push	r29
     53a:	cd b7       	in	r28, 0x3d	; 61
     53c:	de b7       	in	r29, 0x3e	; 62
     53e:	60 97       	sbiw	r28, 0x10	; 16
     540:	0f b6       	in	r0, 0x3f	; 63
     542:	f8 94       	cli
     544:	de bf       	out	0x3e, r29	; 62
     546:	0f be       	out	0x3f, r0	; 63
     548:	cd bf       	out	0x3d, r28	; 61
			

	//Drivers init
	UART_Init(MYUBRR);
     54a:	8f e1       	ldi	r24, 0x1F	; 31
     54c:	90 e0       	ldi	r25, 0x00	; 0
     54e:	0e 94 f5 03 	call	0x7ea	; 0x7ea <UART_Init>
	SRAM_Init();
     552:	0e 94 e2 03 	call	0x7c4	; 0x7c4 <SRAM_Init>
	ADC_Init();
     556:	0e 94 57 00 	call	0xae	; 0xae <ADC_Init>
	joystick_calibrate();
     55a:	0e 94 cb 00 	call	0x196	; 0x196 <joystick_calibrate>
	OLED_init();
     55e:	0e 94 89 03 	call	0x712	; 0x712 <OLED_init>
	can_init();
     562:	0e 94 7e 00 	call	0xfc	; 0xfc <can_init>
	
	PORTE = 0b00000010;
     566:	82 e0       	ldi	r24, 0x02	; 2
     568:	87 b9       	out	0x07, r24	; 7
	
	DDRE &= ~(1 << PE0);
     56a:	86 b1       	in	r24, 0x06	; 6
     56c:	8e 7f       	andi	r24, 0xFE	; 254
     56e:	86 b9       	out	0x06, r24	; 6
	GICR &= 0b00000111;
     570:	8b b7       	in	r24, 0x3b	; 59
     572:	87 70       	andi	r24, 0x07	; 7
     574:	8b bf       	out	0x3b, r24	; 59
	EMCUCR &= ~(1 << ISC2);
     576:	86 b7       	in	r24, 0x36	; 54
     578:	8e 7f       	andi	r24, 0xFE	; 254
     57a:	86 bf       	out	0x36, r24	; 54
	GIFR |= (1 << INTF2);
     57c:	8a b7       	in	r24, 0x3a	; 58
     57e:	80 62       	ori	r24, 0x20	; 32
     580:	8a bf       	out	0x3a, r24	; 58
	sei();
     582:	78 94       	sei

  
	can_message to_send;
	can_message received;
	int i = 0;
	to_send.length=4;
     584:	84 e0       	ldi	r24, 0x04	; 4
     586:	8b 83       	std	Y+3, r24	; 0x03
	to_send.id = 54;
     588:	86 e3       	ldi	r24, 0x36	; 54
     58a:	90 e0       	ldi	r25, 0x00	; 0
     58c:	9a 83       	std	Y+2, r25	; 0x02
     58e:	89 83       	std	Y+1, r24	; 0x01
	
    while (1)
    {
		joystick_pos pos;
		
		pos = get_joystick_pos();
     590:	0e 94 55 01 	call	0x2aa	; 0x2aa <get_joystick_pos>
     594:	2c 87       	std	Y+12, r18	; 0x0c
     596:	3d 87       	std	Y+13, r19	; 0x0d
     598:	4e 87       	std	Y+14, r20	; 0x0e
     59a:	5f 87       	std	Y+15, r21	; 0x0f
     59c:	68 8b       	std	Y+16, r22	; 0x10
		pos.button = joystick_button();
     59e:	0e 94 93 02 	call	0x526	; 0x526 <joystick_button>
	
		to_send.data[0] = pos.y;
     5a2:	9d 85       	ldd	r25, Y+13	; 0x0d
     5a4:	9c 83       	std	Y+4, r25	; 0x04
		to_send.data[1] = pos.x;
     5a6:	2c 85       	ldd	r18, Y+12	; 0x0c
     5a8:	2d 83       	std	Y+5, r18	; 0x05
		to_send.data[2] = pos.dir;
     5aa:	3e 85       	ldd	r19, Y+14	; 0x0e
     5ac:	3e 83       	std	Y+6, r19	; 0x06
		to_send.data[3] = pos.button;
     5ae:	8f 83       	std	Y+7, r24	; 0x07
		
		printf("Vertical %d       Horizontal %d     DIRECTION : %d \r\n", to_send.data[0], to_send.data[1], to_send.data[2]);
     5b0:	1f 92       	push	r1
     5b2:	3f 93       	push	r19
     5b4:	1f 92       	push	r1
     5b6:	2f 93       	push	r18
     5b8:	1f 92       	push	r1
     5ba:	9f 93       	push	r25
     5bc:	86 e0       	ldi	r24, 0x06	; 6
     5be:	91 e0       	ldi	r25, 0x01	; 1
     5c0:	9f 93       	push	r25
     5c2:	8f 93       	push	r24
     5c4:	0e 94 75 04 	call	0x8ea	; 0x8ea <printf>
		
		can_send(&to_send);
     5c8:	ce 01       	movw	r24, r28
     5ca:	01 96       	adiw	r24, 0x01	; 1
     5cc:	0e 94 92 00 	call	0x124	; 0x124 <can_send>
     5d0:	2f ef       	ldi	r18, 0xFF	; 255
     5d2:	8f e7       	ldi	r24, 0x7F	; 127
     5d4:	91 e0       	ldi	r25, 0x01	; 1
     5d6:	21 50       	subi	r18, 0x01	; 1
     5d8:	80 40       	sbci	r24, 0x00	; 0
     5da:	90 40       	sbci	r25, 0x00	; 0
     5dc:	e1 f7       	brne	.-8      	; 0x5d6 <main+0xa0>
     5de:	00 c0       	rjmp	.+0      	; 0x5e0 <main+0xaa>
     5e0:	00 c0       	rjmp	.+0      	; 0x5e2 <main+0xac>
     5e2:	0f b6       	in	r0, 0x3f	; 63
     5e4:	f8 94       	cli
     5e6:	de bf       	out	0x3e, r29	; 62
     5e8:	0f be       	out	0x3f, r0	; 63
     5ea:	cd bf       	out	0x3d, r28	; 61
     5ec:	d1 cf       	rjmp	.-94     	; 0x590 <main+0x5a>

000005ee <mcp_read>:
		PORTB &= ~(1 << PINB4);
		SPI_MasterTransmit(MCP_READ_STATUS);
		
		result = SPI_MaserRead();
		
		PORTB |= (1 << PINB4);
     5ee:	cf 93       	push	r28
     5f0:	c8 2f       	mov	r28, r24
     5f2:	88 b3       	in	r24, 0x18	; 24
     5f4:	8f 7e       	andi	r24, 0xEF	; 239
     5f6:	88 bb       	out	0x18, r24	; 24
     5f8:	83 e0       	ldi	r24, 0x03	; 3
     5fa:	0e 94 d7 03 	call	0x7ae	; 0x7ae <SPI_MasterTransmit>
     5fe:	8c 2f       	mov	r24, r28
     600:	0e 94 d7 03 	call	0x7ae	; 0x7ae <SPI_MasterTransmit>
     604:	0e 94 db 03 	call	0x7b6	; 0x7b6 <SPI_MaserRead>
     608:	98 b3       	in	r25, 0x18	; 24
     60a:	90 61       	ori	r25, 0x10	; 16
     60c:	98 bb       	out	0x18, r25	; 24
     60e:	cf 91       	pop	r28
     610:	08 95       	ret

00000612 <mcp_write>:
     612:	cf 93       	push	r28
     614:	df 93       	push	r29
     616:	d8 2f       	mov	r29, r24
     618:	c6 2f       	mov	r28, r22
     61a:	88 b3       	in	r24, 0x18	; 24
     61c:	8f 7e       	andi	r24, 0xEF	; 239
     61e:	88 bb       	out	0x18, r24	; 24
     620:	82 e0       	ldi	r24, 0x02	; 2
     622:	0e 94 d7 03 	call	0x7ae	; 0x7ae <SPI_MasterTransmit>
     626:	8d 2f       	mov	r24, r29
     628:	0e 94 d7 03 	call	0x7ae	; 0x7ae <SPI_MasterTransmit>
     62c:	8c 2f       	mov	r24, r28
     62e:	0e 94 d7 03 	call	0x7ae	; 0x7ae <SPI_MasterTransmit>
     632:	88 b3       	in	r24, 0x18	; 24
     634:	80 61       	ori	r24, 0x10	; 16
     636:	88 bb       	out	0x18, r24	; 24
     638:	df 91       	pop	r29
     63a:	cf 91       	pop	r28
     63c:	08 95       	ret

0000063e <mcp_request_send>:
     63e:	9c 01       	movw	r18, r24
     640:	98 b3       	in	r25, 0x18	; 24
     642:	9f 7e       	andi	r25, 0xEF	; 239
     644:	98 bb       	out	0x18, r25	; 24
     646:	21 30       	cpi	r18, 0x01	; 1
     648:	31 05       	cpc	r19, r1
     64a:	79 f0       	breq	.+30     	; 0x66a <mcp_request_send+0x2c>
     64c:	1c f4       	brge	.+6      	; 0x654 <mcp_request_send+0x16>
     64e:	23 2b       	or	r18, r19
     650:	41 f0       	breq	.+16     	; 0x662 <mcp_request_send+0x24>
     652:	17 c0       	rjmp	.+46     	; 0x682 <mcp_request_send+0x44>
     654:	22 30       	cpi	r18, 0x02	; 2
     656:	31 05       	cpc	r19, r1
     658:	61 f0       	breq	.+24     	; 0x672 <mcp_request_send+0x34>
     65a:	23 30       	cpi	r18, 0x03	; 3
     65c:	31 05       	cpc	r19, r1
     65e:	69 f0       	breq	.+26     	; 0x67a <mcp_request_send+0x3c>
     660:	10 c0       	rjmp	.+32     	; 0x682 <mcp_request_send+0x44>
     662:	81 e8       	ldi	r24, 0x81	; 129
     664:	0e 94 d7 03 	call	0x7ae	; 0x7ae <SPI_MasterTransmit>
     668:	0f c0       	rjmp	.+30     	; 0x688 <mcp_request_send+0x4a>
     66a:	82 e8       	ldi	r24, 0x82	; 130
     66c:	0e 94 d7 03 	call	0x7ae	; 0x7ae <SPI_MasterTransmit>
     670:	0b c0       	rjmp	.+22     	; 0x688 <mcp_request_send+0x4a>
     672:	84 e8       	ldi	r24, 0x84	; 132
     674:	0e 94 d7 03 	call	0x7ae	; 0x7ae <SPI_MasterTransmit>
     678:	07 c0       	rjmp	.+14     	; 0x688 <mcp_request_send+0x4a>
     67a:	87 e8       	ldi	r24, 0x87	; 135
     67c:	0e 94 d7 03 	call	0x7ae	; 0x7ae <SPI_MasterTransmit>
     680:	03 c0       	rjmp	.+6      	; 0x688 <mcp_request_send+0x4a>
     682:	80 e8       	ldi	r24, 0x80	; 128
     684:	0e 94 d7 03 	call	0x7ae	; 0x7ae <SPI_MasterTransmit>
     688:	88 b3       	in	r24, 0x18	; 24
     68a:	80 61       	ori	r24, 0x10	; 16
     68c:	88 bb       	out	0x18, r24	; 24
     68e:	08 95       	ret

00000690 <mcp_reset>:
     690:	88 b3       	in	r24, 0x18	; 24
     692:	8f 7e       	andi	r24, 0xEF	; 239
     694:	88 bb       	out	0x18, r24	; 24
     696:	80 ec       	ldi	r24, 0xC0	; 192
     698:	0e 94 d7 03 	call	0x7ae	; 0x7ae <SPI_MasterTransmit>
     69c:	88 b3       	in	r24, 0x18	; 24
     69e:	80 61       	ori	r24, 0x10	; 16
     6a0:	88 bb       	out	0x18, r24	; 24
     6a2:	08 95       	ret

000006a4 <mcp_init>:
     6a4:	0e 94 d0 03 	call	0x7a0	; 0x7a0 <SPI_MasterInit>
     6a8:	0e 94 48 03 	call	0x690	; 0x690 <mcp_reset>
     6ac:	8e e0       	ldi	r24, 0x0E	; 14
     6ae:	0e 94 f7 02 	call	0x5ee	; 0x5ee <mcp_read>
     6b2:	80 7e       	andi	r24, 0xE0	; 224
     6b4:	80 38       	cpi	r24, 0x80	; 128
     6b6:	51 f0       	breq	.+20     	; 0x6cc <mcp_init+0x28>
     6b8:	8c e3       	ldi	r24, 0x3C	; 60
     6ba:	91 e0       	ldi	r25, 0x01	; 1
     6bc:	9f 93       	push	r25
     6be:	8f 93       	push	r24
     6c0:	0e 94 75 04 	call	0x8ea	; 0x8ea <printf>
     6c4:	0f 90       	pop	r0
     6c6:	0f 90       	pop	r0
     6c8:	81 e0       	ldi	r24, 0x01	; 1
     6ca:	08 95       	ret
     6cc:	80 e0       	ldi	r24, 0x00	; 0
     6ce:	08 95       	ret

000006d0 <mcp_bit_modify>:
		return result ;
	};
	
void mcp_bit_modify(uint8_t address_register, uint8_t mask, uint8_t data) {  // NOT FOR ALL REGISTERS. SEE REGISTER MAP.
     6d0:	1f 93       	push	r17
     6d2:	cf 93       	push	r28
     6d4:	df 93       	push	r29
     6d6:	18 2f       	mov	r17, r24
     6d8:	d6 2f       	mov	r29, r22
     6da:	c4 2f       	mov	r28, r20
	PORTB &= ~(1 << PINB4);
     6dc:	88 b3       	in	r24, 0x18	; 24
     6de:	8f 7e       	andi	r24, 0xEF	; 239
     6e0:	88 bb       	out	0x18, r24	; 24
	
	SPI_MasterTransmit(MCP_BITMOD);
     6e2:	85 e0       	ldi	r24, 0x05	; 5
     6e4:	0e 94 d7 03 	call	0x7ae	; 0x7ae <SPI_MasterTransmit>
	SPI_MasterTransmit(address_register);
     6e8:	81 2f       	mov	r24, r17
     6ea:	0e 94 d7 03 	call	0x7ae	; 0x7ae <SPI_MasterTransmit>
	SPI_MasterTransmit(mask);
     6ee:	8d 2f       	mov	r24, r29
     6f0:	0e 94 d7 03 	call	0x7ae	; 0x7ae <SPI_MasterTransmit>
	SPI_MasterTransmit(data);
     6f4:	8c 2f       	mov	r24, r28
     6f6:	0e 94 d7 03 	call	0x7ae	; 0x7ae <SPI_MasterTransmit>
	
	PORTB |= (1 << PINB4);
     6fa:	88 b3       	in	r24, 0x18	; 24
     6fc:	80 61       	ori	r24, 0x10	; 16
     6fe:	88 bb       	out	0x18, r24	; 24
};
     700:	df 91       	pop	r29
     702:	cf 91       	pop	r28
     704:	1f 91       	pop	r17
     706:	08 95       	ret

00000708 <oled_write_c>:
	oled_write_c(0xaf); // display on
	
}

void oled_write_c(uint8_t command) {
	xmem_write(command, 0x0000);
     708:	60 e0       	ldi	r22, 0x00	; 0
     70a:	70 e0       	ldi	r23, 0x00	; 0
     70c:	0e 94 e9 03 	call	0x7d2	; 0x7d2 <xmem_write>
     710:	08 95       	ret

00000712 <OLED_init>:
volatile oled_pos current_pos;


void OLED_init()
{
	current_pos.page = 0x00;
     712:	e9 e7       	ldi	r30, 0x79	; 121
     714:	f1 e0       	ldi	r31, 0x01	; 1
     716:	10 82       	st	Z, r1
	current_pos.column = 0x00;
     718:	11 82       	std	Z+1, r1	; 0x01
	
	
	oled_write_c(0xae); // display off
     71a:	8e ea       	ldi	r24, 0xAE	; 174
     71c:	0e 94 84 03 	call	0x708	; 0x708 <oled_write_c>
	oled_write_c(0xa1); //segment remap
     720:	81 ea       	ldi	r24, 0xA1	; 161
     722:	0e 94 84 03 	call	0x708	; 0x708 <oled_write_c>
	oled_write_c(0xda); //common pads hardware: alternative
     726:	8a ed       	ldi	r24, 0xDA	; 218
     728:	0e 94 84 03 	call	0x708	; 0x708 <oled_write_c>
	oled_write_c(0x12);
     72c:	82 e1       	ldi	r24, 0x12	; 18
     72e:	0e 94 84 03 	call	0x708	; 0x708 <oled_write_c>
	oled_write_c(0xc8); //common output scan direction:com63~com0
     732:	88 ec       	ldi	r24, 0xC8	; 200
     734:	0e 94 84 03 	call	0x708	; 0x708 <oled_write_c>
	oled_write_c(0xa8); //multiplex ration mode:63
     738:	88 ea       	ldi	r24, 0xA8	; 168
     73a:	0e 94 84 03 	call	0x708	; 0x708 <oled_write_c>
	oled_write_c(0x3f);
     73e:	8f e3       	ldi	r24, 0x3F	; 63
     740:	0e 94 84 03 	call	0x708	; 0x708 <oled_write_c>
	oled_write_c(0xd5); //display divide ratio/osc. freq. mode
     744:	85 ed       	ldi	r24, 0xD5	; 213
     746:	0e 94 84 03 	call	0x708	; 0x708 <oled_write_c>
	oled_write_c(0x80);
     74a:	80 e8       	ldi	r24, 0x80	; 128
     74c:	0e 94 84 03 	call	0x708	; 0x708 <oled_write_c>
	oled_write_c(0x81); //contrast control
     750:	81 e8       	ldi	r24, 0x81	; 129
     752:	0e 94 84 03 	call	0x708	; 0x708 <oled_write_c>
	oled_write_c(0x50);
     756:	80 e5       	ldi	r24, 0x50	; 80
     758:	0e 94 84 03 	call	0x708	; 0x708 <oled_write_c>
	oled_write_c(0xd9); //set pre-charge period
     75c:	89 ed       	ldi	r24, 0xD9	; 217
     75e:	0e 94 84 03 	call	0x708	; 0x708 <oled_write_c>
	oled_write_c(0x21);
     762:	81 e2       	ldi	r24, 0x21	; 33
     764:	0e 94 84 03 	call	0x708	; 0x708 <oled_write_c>
	oled_write_c(0x20); //Set Memory Addressing Mode
     768:	80 e2       	ldi	r24, 0x20	; 32
     76a:	0e 94 84 03 	call	0x708	; 0x708 <oled_write_c>
	oled_write_c(0x02);
     76e:	82 e0       	ldi	r24, 0x02	; 2
     770:	0e 94 84 03 	call	0x708	; 0x708 <oled_write_c>
	oled_write_c(0xdb); //VCOM deselect level mode
     774:	8b ed       	ldi	r24, 0xDB	; 219
     776:	0e 94 84 03 	call	0x708	; 0x708 <oled_write_c>
	oled_write_c(0x30);
     77a:	80 e3       	ldi	r24, 0x30	; 48
     77c:	0e 94 84 03 	call	0x708	; 0x708 <oled_write_c>
	oled_write_c(0xad); //master configuration
     780:	8d ea       	ldi	r24, 0xAD	; 173
     782:	0e 94 84 03 	call	0x708	; 0x708 <oled_write_c>
	oled_write_c(0x00);
     786:	80 e0       	ldi	r24, 0x00	; 0
     788:	0e 94 84 03 	call	0x708	; 0x708 <oled_write_c>
	oled_write_c(0xa4); //out follows RAM content
     78c:	84 ea       	ldi	r24, 0xA4	; 164
     78e:	0e 94 84 03 	call	0x708	; 0x708 <oled_write_c>
	oled_write_c(0xa6); //set normal display
     792:	86 ea       	ldi	r24, 0xA6	; 166
     794:	0e 94 84 03 	call	0x708	; 0x708 <oled_write_c>
	oled_write_c(0xaf); // display on
     798:	8f ea       	ldi	r24, 0xAF	; 175
     79a:	0e 94 84 03 	call	0x708	; 0x708 <oled_write_c>
     79e:	08 95       	ret

000007a0 <SPI_MasterInit>:
     7a0:	87 b3       	in	r24, 0x17	; 23
     7a2:	80 6b       	ori	r24, 0xB0	; 176
     7a4:	87 bb       	out	0x17, r24	; 23
     7a6:	8d b1       	in	r24, 0x0d	; 13
     7a8:	81 65       	ori	r24, 0x51	; 81
     7aa:	8d b9       	out	0x0d, r24	; 13
     7ac:	08 95       	ret

000007ae <SPI_MasterTransmit>:
     7ae:	8f b9       	out	0x0f, r24	; 15
     7b0:	77 9b       	sbis	0x0e, 7	; 14
     7b2:	fe cf       	rjmp	.-4      	; 0x7b0 <SPI_MasterTransmit+0x2>
     7b4:	08 95       	ret

000007b6 <SPI_MaserRead>:
     7b6:	80 e0       	ldi	r24, 0x00	; 0
     7b8:	0e 94 d7 03 	call	0x7ae	; 0x7ae <SPI_MasterTransmit>
     7bc:	77 9b       	sbis	0x0e, 7	; 14
     7be:	fe cf       	rjmp	.-4      	; 0x7bc <SPI_MaserRead+0x6>
     7c0:	8f b1       	in	r24, 0x0f	; 15
     7c2:	08 95       	ret

000007c4 <SRAM_Init>:

#include "SRAM.h"

void SRAM_Init()
{
	MCUCR |= (1 << SRE);
     7c4:	85 b7       	in	r24, 0x35	; 53
     7c6:	80 68       	ori	r24, 0x80	; 128
     7c8:	85 bf       	out	0x35, r24	; 53
	SFIOR |= (1 << XMM0 );
     7ca:	80 b7       	in	r24, 0x30	; 48
     7cc:	88 60       	ori	r24, 0x08	; 8
     7ce:	80 bf       	out	0x30, r24	; 48
     7d0:	08 95       	ret

000007d2 <xmem_write>:
}

void xmem_write ( uint8_t data , uint16_t addr ) {
	volatile char * ext_mem = ( char *) 0x1000 ;
	ext_mem [ addr ]= data;
     7d2:	fb 01       	movw	r30, r22
     7d4:	f0 5f       	subi	r31, 0xF0	; 240
     7d6:	80 83       	st	Z, r24
     7d8:	08 95       	ret

000007da <UART_Transmit>:
     7da:	5d 9b       	sbis	0x0b, 5	; 11
     7dc:	fe cf       	rjmp	.-4      	; 0x7da <UART_Transmit>
     7de:	8c b9       	out	0x0c, r24	; 12
     7e0:	08 95       	ret

000007e2 <UART_Receive>:
     7e2:	5f 9b       	sbis	0x0b, 7	; 11
     7e4:	fe cf       	rjmp	.-4      	; 0x7e2 <UART_Receive>
     7e6:	8c b1       	in	r24, 0x0c	; 12
     7e8:	08 95       	ret

000007ea <UART_Init>:
     7ea:	90 bd       	out	0x20, r25	; 32
     7ec:	89 b9       	out	0x09, r24	; 9
     7ee:	88 e1       	ldi	r24, 0x18	; 24
     7f0:	8a b9       	out	0x0a, r24	; 10
     7f2:	8e e8       	ldi	r24, 0x8E	; 142
     7f4:	80 bd       	out	0x20, r24	; 32
     7f6:	61 ef       	ldi	r22, 0xF1	; 241
     7f8:	73 e0       	ldi	r23, 0x03	; 3
     7fa:	8d ee       	ldi	r24, 0xED	; 237
     7fc:	93 e0       	ldi	r25, 0x03	; 3
     7fe:	0e 94 2a 04 	call	0x854	; 0x854 <fdevopen>
     802:	08 95       	ret

00000804 <__divmodhi4>:
     804:	97 fb       	bst	r25, 7
     806:	07 2e       	mov	r0, r23
     808:	16 f4       	brtc	.+4      	; 0x80e <__divmodhi4+0xa>
     80a:	00 94       	com	r0
     80c:	07 d0       	rcall	.+14     	; 0x81c <__divmodhi4_neg1>
     80e:	77 fd       	sbrc	r23, 7
     810:	09 d0       	rcall	.+18     	; 0x824 <__divmodhi4_neg2>
     812:	0e 94 16 04 	call	0x82c	; 0x82c <__udivmodhi4>
     816:	07 fc       	sbrc	r0, 7
     818:	05 d0       	rcall	.+10     	; 0x824 <__divmodhi4_neg2>
     81a:	3e f4       	brtc	.+14     	; 0x82a <__divmodhi4_exit>

0000081c <__divmodhi4_neg1>:
     81c:	90 95       	com	r25
     81e:	81 95       	neg	r24
     820:	9f 4f       	sbci	r25, 0xFF	; 255
     822:	08 95       	ret

00000824 <__divmodhi4_neg2>:
     824:	70 95       	com	r23
     826:	61 95       	neg	r22
     828:	7f 4f       	sbci	r23, 0xFF	; 255

0000082a <__divmodhi4_exit>:
     82a:	08 95       	ret

0000082c <__udivmodhi4>:
     82c:	aa 1b       	sub	r26, r26
     82e:	bb 1b       	sub	r27, r27
     830:	51 e1       	ldi	r21, 0x11	; 17
     832:	07 c0       	rjmp	.+14     	; 0x842 <__udivmodhi4_ep>

00000834 <__udivmodhi4_loop>:
     834:	aa 1f       	adc	r26, r26
     836:	bb 1f       	adc	r27, r27
     838:	a6 17       	cp	r26, r22
     83a:	b7 07       	cpc	r27, r23
     83c:	10 f0       	brcs	.+4      	; 0x842 <__udivmodhi4_ep>
     83e:	a6 1b       	sub	r26, r22
     840:	b7 0b       	sbc	r27, r23

00000842 <__udivmodhi4_ep>:
     842:	88 1f       	adc	r24, r24
     844:	99 1f       	adc	r25, r25
     846:	5a 95       	dec	r21
     848:	a9 f7       	brne	.-22     	; 0x834 <__udivmodhi4_loop>
     84a:	80 95       	com	r24
     84c:	90 95       	com	r25
     84e:	bc 01       	movw	r22, r24
     850:	cd 01       	movw	r24, r26
     852:	08 95       	ret

00000854 <fdevopen>:
     854:	0f 93       	push	r16
     856:	1f 93       	push	r17
     858:	cf 93       	push	r28
     85a:	df 93       	push	r29
     85c:	00 97       	sbiw	r24, 0x00	; 0
     85e:	31 f4       	brne	.+12     	; 0x86c <fdevopen+0x18>
     860:	61 15       	cp	r22, r1
     862:	71 05       	cpc	r23, r1
     864:	19 f4       	brne	.+6      	; 0x86c <fdevopen+0x18>
     866:	80 e0       	ldi	r24, 0x00	; 0
     868:	90 e0       	ldi	r25, 0x00	; 0
     86a:	3a c0       	rjmp	.+116    	; 0x8e0 <fdevopen+0x8c>
     86c:	8b 01       	movw	r16, r22
     86e:	ec 01       	movw	r28, r24
     870:	6e e0       	ldi	r22, 0x0E	; 14
     872:	70 e0       	ldi	r23, 0x00	; 0
     874:	81 e0       	ldi	r24, 0x01	; 1
     876:	90 e0       	ldi	r25, 0x00	; 0
     878:	0e 94 6c 06 	call	0xcd8	; 0xcd8 <calloc>
     87c:	fc 01       	movw	r30, r24
     87e:	89 2b       	or	r24, r25
     880:	91 f3       	breq	.-28     	; 0x866 <fdevopen+0x12>
     882:	80 e8       	ldi	r24, 0x80	; 128
     884:	83 83       	std	Z+3, r24	; 0x03
     886:	01 15       	cp	r16, r1
     888:	11 05       	cpc	r17, r1
     88a:	71 f0       	breq	.+28     	; 0x8a8 <fdevopen+0x54>
     88c:	13 87       	std	Z+11, r17	; 0x0b
     88e:	02 87       	std	Z+10, r16	; 0x0a
     890:	81 e8       	ldi	r24, 0x81	; 129
     892:	83 83       	std	Z+3, r24	; 0x03
     894:	80 91 7b 01 	lds	r24, 0x017B	; 0x80017b <__iob>
     898:	90 91 7c 01 	lds	r25, 0x017C	; 0x80017c <__iob+0x1>
     89c:	89 2b       	or	r24, r25
     89e:	21 f4       	brne	.+8      	; 0x8a8 <fdevopen+0x54>
     8a0:	f0 93 7c 01 	sts	0x017C, r31	; 0x80017c <__iob+0x1>
     8a4:	e0 93 7b 01 	sts	0x017B, r30	; 0x80017b <__iob>
     8a8:	20 97       	sbiw	r28, 0x00	; 0
     8aa:	c9 f0       	breq	.+50     	; 0x8de <fdevopen+0x8a>
     8ac:	d1 87       	std	Z+9, r29	; 0x09
     8ae:	c0 87       	std	Z+8, r28	; 0x08
     8b0:	83 81       	ldd	r24, Z+3	; 0x03
     8b2:	82 60       	ori	r24, 0x02	; 2
     8b4:	83 83       	std	Z+3, r24	; 0x03
     8b6:	80 91 7d 01 	lds	r24, 0x017D	; 0x80017d <__iob+0x2>
     8ba:	90 91 7e 01 	lds	r25, 0x017E	; 0x80017e <__iob+0x3>
     8be:	89 2b       	or	r24, r25
     8c0:	71 f4       	brne	.+28     	; 0x8de <fdevopen+0x8a>
     8c2:	f0 93 7e 01 	sts	0x017E, r31	; 0x80017e <__iob+0x3>
     8c6:	e0 93 7d 01 	sts	0x017D, r30	; 0x80017d <__iob+0x2>
     8ca:	80 91 7f 01 	lds	r24, 0x017F	; 0x80017f <__iob+0x4>
     8ce:	90 91 80 01 	lds	r25, 0x0180	; 0x800180 <__iob+0x5>
     8d2:	89 2b       	or	r24, r25
     8d4:	21 f4       	brne	.+8      	; 0x8de <fdevopen+0x8a>
     8d6:	f0 93 80 01 	sts	0x0180, r31	; 0x800180 <__iob+0x5>
     8da:	e0 93 7f 01 	sts	0x017F, r30	; 0x80017f <__iob+0x4>
     8de:	cf 01       	movw	r24, r30
     8e0:	df 91       	pop	r29
     8e2:	cf 91       	pop	r28
     8e4:	1f 91       	pop	r17
     8e6:	0f 91       	pop	r16
     8e8:	08 95       	ret

000008ea <printf>:
     8ea:	a0 e0       	ldi	r26, 0x00	; 0
     8ec:	b0 e0       	ldi	r27, 0x00	; 0
     8ee:	eb e7       	ldi	r30, 0x7B	; 123
     8f0:	f4 e0       	ldi	r31, 0x04	; 4
     8f2:	0c 94 70 08 	jmp	0x10e0	; 0x10e0 <__prologue_saves__+0x20>
     8f6:	ae 01       	movw	r20, r28
     8f8:	4b 5f       	subi	r20, 0xFB	; 251
     8fa:	5f 4f       	sbci	r21, 0xFF	; 255
     8fc:	fa 01       	movw	r30, r20
     8fe:	61 91       	ld	r22, Z+
     900:	71 91       	ld	r23, Z+
     902:	af 01       	movw	r20, r30
     904:	80 91 7d 01 	lds	r24, 0x017D	; 0x80017d <__iob+0x2>
     908:	90 91 7e 01 	lds	r25, 0x017E	; 0x80017e <__iob+0x3>
     90c:	0e 94 8b 04 	call	0x916	; 0x916 <vfprintf>
     910:	e2 e0       	ldi	r30, 0x02	; 2
     912:	0c 94 8c 08 	jmp	0x1118	; 0x1118 <__epilogue_restores__+0x20>

00000916 <vfprintf>:
     916:	ab e0       	ldi	r26, 0x0B	; 11
     918:	b0 e0       	ldi	r27, 0x00	; 0
     91a:	e1 e9       	ldi	r30, 0x91	; 145
     91c:	f4 e0       	ldi	r31, 0x04	; 4
     91e:	0c 94 60 08 	jmp	0x10c0	; 0x10c0 <__prologue_saves__>
     922:	6c 01       	movw	r12, r24
     924:	7b 01       	movw	r14, r22
     926:	8a 01       	movw	r16, r20
     928:	fc 01       	movw	r30, r24
     92a:	17 82       	std	Z+7, r1	; 0x07
     92c:	16 82       	std	Z+6, r1	; 0x06
     92e:	83 81       	ldd	r24, Z+3	; 0x03
     930:	81 ff       	sbrs	r24, 1
     932:	cc c1       	rjmp	.+920    	; 0xccc <vfprintf+0x3b6>
     934:	ce 01       	movw	r24, r28
     936:	01 96       	adiw	r24, 0x01	; 1
     938:	3c 01       	movw	r6, r24
     93a:	f6 01       	movw	r30, r12
     93c:	93 81       	ldd	r25, Z+3	; 0x03
     93e:	f7 01       	movw	r30, r14
     940:	93 fd       	sbrc	r25, 3
     942:	85 91       	lpm	r24, Z+
     944:	93 ff       	sbrs	r25, 3
     946:	81 91       	ld	r24, Z+
     948:	7f 01       	movw	r14, r30
     94a:	88 23       	and	r24, r24
     94c:	09 f4       	brne	.+2      	; 0x950 <vfprintf+0x3a>
     94e:	ba c1       	rjmp	.+884    	; 0xcc4 <vfprintf+0x3ae>
     950:	85 32       	cpi	r24, 0x25	; 37
     952:	39 f4       	brne	.+14     	; 0x962 <vfprintf+0x4c>
     954:	93 fd       	sbrc	r25, 3
     956:	85 91       	lpm	r24, Z+
     958:	93 ff       	sbrs	r25, 3
     95a:	81 91       	ld	r24, Z+
     95c:	7f 01       	movw	r14, r30
     95e:	85 32       	cpi	r24, 0x25	; 37
     960:	29 f4       	brne	.+10     	; 0x96c <vfprintf+0x56>
     962:	b6 01       	movw	r22, r12
     964:	90 e0       	ldi	r25, 0x00	; 0
     966:	0e 94 c6 07 	call	0xf8c	; 0xf8c <fputc>
     96a:	e7 cf       	rjmp	.-50     	; 0x93a <vfprintf+0x24>
     96c:	91 2c       	mov	r9, r1
     96e:	21 2c       	mov	r2, r1
     970:	31 2c       	mov	r3, r1
     972:	ff e1       	ldi	r31, 0x1F	; 31
     974:	f3 15       	cp	r31, r3
     976:	d8 f0       	brcs	.+54     	; 0x9ae <vfprintf+0x98>
     978:	8b 32       	cpi	r24, 0x2B	; 43
     97a:	79 f0       	breq	.+30     	; 0x99a <vfprintf+0x84>
     97c:	38 f4       	brcc	.+14     	; 0x98c <vfprintf+0x76>
     97e:	80 32       	cpi	r24, 0x20	; 32
     980:	79 f0       	breq	.+30     	; 0x9a0 <vfprintf+0x8a>
     982:	83 32       	cpi	r24, 0x23	; 35
     984:	a1 f4       	brne	.+40     	; 0x9ae <vfprintf+0x98>
     986:	23 2d       	mov	r18, r3
     988:	20 61       	ori	r18, 0x10	; 16
     98a:	1d c0       	rjmp	.+58     	; 0x9c6 <vfprintf+0xb0>
     98c:	8d 32       	cpi	r24, 0x2D	; 45
     98e:	61 f0       	breq	.+24     	; 0x9a8 <vfprintf+0x92>
     990:	80 33       	cpi	r24, 0x30	; 48
     992:	69 f4       	brne	.+26     	; 0x9ae <vfprintf+0x98>
     994:	23 2d       	mov	r18, r3
     996:	21 60       	ori	r18, 0x01	; 1
     998:	16 c0       	rjmp	.+44     	; 0x9c6 <vfprintf+0xb0>
     99a:	83 2d       	mov	r24, r3
     99c:	82 60       	ori	r24, 0x02	; 2
     99e:	38 2e       	mov	r3, r24
     9a0:	e3 2d       	mov	r30, r3
     9a2:	e4 60       	ori	r30, 0x04	; 4
     9a4:	3e 2e       	mov	r3, r30
     9a6:	2a c0       	rjmp	.+84     	; 0x9fc <vfprintf+0xe6>
     9a8:	f3 2d       	mov	r31, r3
     9aa:	f8 60       	ori	r31, 0x08	; 8
     9ac:	1d c0       	rjmp	.+58     	; 0x9e8 <vfprintf+0xd2>
     9ae:	37 fc       	sbrc	r3, 7
     9b0:	2d c0       	rjmp	.+90     	; 0xa0c <vfprintf+0xf6>
     9b2:	20 ed       	ldi	r18, 0xD0	; 208
     9b4:	28 0f       	add	r18, r24
     9b6:	2a 30       	cpi	r18, 0x0A	; 10
     9b8:	40 f0       	brcs	.+16     	; 0x9ca <vfprintf+0xb4>
     9ba:	8e 32       	cpi	r24, 0x2E	; 46
     9bc:	b9 f4       	brne	.+46     	; 0x9ec <vfprintf+0xd6>
     9be:	36 fc       	sbrc	r3, 6
     9c0:	81 c1       	rjmp	.+770    	; 0xcc4 <vfprintf+0x3ae>
     9c2:	23 2d       	mov	r18, r3
     9c4:	20 64       	ori	r18, 0x40	; 64
     9c6:	32 2e       	mov	r3, r18
     9c8:	19 c0       	rjmp	.+50     	; 0x9fc <vfprintf+0xe6>
     9ca:	36 fe       	sbrs	r3, 6
     9cc:	06 c0       	rjmp	.+12     	; 0x9da <vfprintf+0xc4>
     9ce:	8a e0       	ldi	r24, 0x0A	; 10
     9d0:	98 9e       	mul	r9, r24
     9d2:	20 0d       	add	r18, r0
     9d4:	11 24       	eor	r1, r1
     9d6:	92 2e       	mov	r9, r18
     9d8:	11 c0       	rjmp	.+34     	; 0x9fc <vfprintf+0xe6>
     9da:	ea e0       	ldi	r30, 0x0A	; 10
     9dc:	2e 9e       	mul	r2, r30
     9de:	20 0d       	add	r18, r0
     9e0:	11 24       	eor	r1, r1
     9e2:	22 2e       	mov	r2, r18
     9e4:	f3 2d       	mov	r31, r3
     9e6:	f0 62       	ori	r31, 0x20	; 32
     9e8:	3f 2e       	mov	r3, r31
     9ea:	08 c0       	rjmp	.+16     	; 0x9fc <vfprintf+0xe6>
     9ec:	8c 36       	cpi	r24, 0x6C	; 108
     9ee:	21 f4       	brne	.+8      	; 0x9f8 <vfprintf+0xe2>
     9f0:	83 2d       	mov	r24, r3
     9f2:	80 68       	ori	r24, 0x80	; 128
     9f4:	38 2e       	mov	r3, r24
     9f6:	02 c0       	rjmp	.+4      	; 0x9fc <vfprintf+0xe6>
     9f8:	88 36       	cpi	r24, 0x68	; 104
     9fa:	41 f4       	brne	.+16     	; 0xa0c <vfprintf+0xf6>
     9fc:	f7 01       	movw	r30, r14
     9fe:	93 fd       	sbrc	r25, 3
     a00:	85 91       	lpm	r24, Z+
     a02:	93 ff       	sbrs	r25, 3
     a04:	81 91       	ld	r24, Z+
     a06:	7f 01       	movw	r14, r30
     a08:	81 11       	cpse	r24, r1
     a0a:	b3 cf       	rjmp	.-154    	; 0x972 <vfprintf+0x5c>
     a0c:	98 2f       	mov	r25, r24
     a0e:	9f 7d       	andi	r25, 0xDF	; 223
     a10:	95 54       	subi	r25, 0x45	; 69
     a12:	93 30       	cpi	r25, 0x03	; 3
     a14:	28 f4       	brcc	.+10     	; 0xa20 <vfprintf+0x10a>
     a16:	0c 5f       	subi	r16, 0xFC	; 252
     a18:	1f 4f       	sbci	r17, 0xFF	; 255
     a1a:	9f e3       	ldi	r25, 0x3F	; 63
     a1c:	99 83       	std	Y+1, r25	; 0x01
     a1e:	0d c0       	rjmp	.+26     	; 0xa3a <vfprintf+0x124>
     a20:	83 36       	cpi	r24, 0x63	; 99
     a22:	31 f0       	breq	.+12     	; 0xa30 <vfprintf+0x11a>
     a24:	83 37       	cpi	r24, 0x73	; 115
     a26:	71 f0       	breq	.+28     	; 0xa44 <vfprintf+0x12e>
     a28:	83 35       	cpi	r24, 0x53	; 83
     a2a:	09 f0       	breq	.+2      	; 0xa2e <vfprintf+0x118>
     a2c:	59 c0       	rjmp	.+178    	; 0xae0 <vfprintf+0x1ca>
     a2e:	21 c0       	rjmp	.+66     	; 0xa72 <vfprintf+0x15c>
     a30:	f8 01       	movw	r30, r16
     a32:	80 81       	ld	r24, Z
     a34:	89 83       	std	Y+1, r24	; 0x01
     a36:	0e 5f       	subi	r16, 0xFE	; 254
     a38:	1f 4f       	sbci	r17, 0xFF	; 255
     a3a:	88 24       	eor	r8, r8
     a3c:	83 94       	inc	r8
     a3e:	91 2c       	mov	r9, r1
     a40:	53 01       	movw	r10, r6
     a42:	13 c0       	rjmp	.+38     	; 0xa6a <vfprintf+0x154>
     a44:	28 01       	movw	r4, r16
     a46:	f2 e0       	ldi	r31, 0x02	; 2
     a48:	4f 0e       	add	r4, r31
     a4a:	51 1c       	adc	r5, r1
     a4c:	f8 01       	movw	r30, r16
     a4e:	a0 80       	ld	r10, Z
     a50:	b1 80       	ldd	r11, Z+1	; 0x01
     a52:	36 fe       	sbrs	r3, 6
     a54:	03 c0       	rjmp	.+6      	; 0xa5c <vfprintf+0x146>
     a56:	69 2d       	mov	r22, r9
     a58:	70 e0       	ldi	r23, 0x00	; 0
     a5a:	02 c0       	rjmp	.+4      	; 0xa60 <vfprintf+0x14a>
     a5c:	6f ef       	ldi	r22, 0xFF	; 255
     a5e:	7f ef       	ldi	r23, 0xFF	; 255
     a60:	c5 01       	movw	r24, r10
     a62:	0e 94 bb 07 	call	0xf76	; 0xf76 <strnlen>
     a66:	4c 01       	movw	r8, r24
     a68:	82 01       	movw	r16, r4
     a6a:	f3 2d       	mov	r31, r3
     a6c:	ff 77       	andi	r31, 0x7F	; 127
     a6e:	3f 2e       	mov	r3, r31
     a70:	16 c0       	rjmp	.+44     	; 0xa9e <vfprintf+0x188>
     a72:	28 01       	movw	r4, r16
     a74:	22 e0       	ldi	r18, 0x02	; 2
     a76:	42 0e       	add	r4, r18
     a78:	51 1c       	adc	r5, r1
     a7a:	f8 01       	movw	r30, r16
     a7c:	a0 80       	ld	r10, Z
     a7e:	b1 80       	ldd	r11, Z+1	; 0x01
     a80:	36 fe       	sbrs	r3, 6
     a82:	03 c0       	rjmp	.+6      	; 0xa8a <vfprintf+0x174>
     a84:	69 2d       	mov	r22, r9
     a86:	70 e0       	ldi	r23, 0x00	; 0
     a88:	02 c0       	rjmp	.+4      	; 0xa8e <vfprintf+0x178>
     a8a:	6f ef       	ldi	r22, 0xFF	; 255
     a8c:	7f ef       	ldi	r23, 0xFF	; 255
     a8e:	c5 01       	movw	r24, r10
     a90:	0e 94 a9 07 	call	0xf52	; 0xf52 <strnlen_P>
     a94:	4c 01       	movw	r8, r24
     a96:	f3 2d       	mov	r31, r3
     a98:	f0 68       	ori	r31, 0x80	; 128
     a9a:	3f 2e       	mov	r3, r31
     a9c:	82 01       	movw	r16, r4
     a9e:	33 fc       	sbrc	r3, 3
     aa0:	1b c0       	rjmp	.+54     	; 0xad8 <vfprintf+0x1c2>
     aa2:	82 2d       	mov	r24, r2
     aa4:	90 e0       	ldi	r25, 0x00	; 0
     aa6:	88 16       	cp	r8, r24
     aa8:	99 06       	cpc	r9, r25
     aaa:	b0 f4       	brcc	.+44     	; 0xad8 <vfprintf+0x1c2>
     aac:	b6 01       	movw	r22, r12
     aae:	80 e2       	ldi	r24, 0x20	; 32
     ab0:	90 e0       	ldi	r25, 0x00	; 0
     ab2:	0e 94 c6 07 	call	0xf8c	; 0xf8c <fputc>
     ab6:	2a 94       	dec	r2
     ab8:	f4 cf       	rjmp	.-24     	; 0xaa2 <vfprintf+0x18c>
     aba:	f5 01       	movw	r30, r10
     abc:	37 fc       	sbrc	r3, 7
     abe:	85 91       	lpm	r24, Z+
     ac0:	37 fe       	sbrs	r3, 7
     ac2:	81 91       	ld	r24, Z+
     ac4:	5f 01       	movw	r10, r30
     ac6:	b6 01       	movw	r22, r12
     ac8:	90 e0       	ldi	r25, 0x00	; 0
     aca:	0e 94 c6 07 	call	0xf8c	; 0xf8c <fputc>
     ace:	21 10       	cpse	r2, r1
     ad0:	2a 94       	dec	r2
     ad2:	21 e0       	ldi	r18, 0x01	; 1
     ad4:	82 1a       	sub	r8, r18
     ad6:	91 08       	sbc	r9, r1
     ad8:	81 14       	cp	r8, r1
     ada:	91 04       	cpc	r9, r1
     adc:	71 f7       	brne	.-36     	; 0xaba <vfprintf+0x1a4>
     ade:	e8 c0       	rjmp	.+464    	; 0xcb0 <vfprintf+0x39a>
     ae0:	84 36       	cpi	r24, 0x64	; 100
     ae2:	11 f0       	breq	.+4      	; 0xae8 <vfprintf+0x1d2>
     ae4:	89 36       	cpi	r24, 0x69	; 105
     ae6:	41 f5       	brne	.+80     	; 0xb38 <vfprintf+0x222>
     ae8:	f8 01       	movw	r30, r16
     aea:	37 fe       	sbrs	r3, 7
     aec:	07 c0       	rjmp	.+14     	; 0xafc <vfprintf+0x1e6>
     aee:	60 81       	ld	r22, Z
     af0:	71 81       	ldd	r23, Z+1	; 0x01
     af2:	82 81       	ldd	r24, Z+2	; 0x02
     af4:	93 81       	ldd	r25, Z+3	; 0x03
     af6:	0c 5f       	subi	r16, 0xFC	; 252
     af8:	1f 4f       	sbci	r17, 0xFF	; 255
     afa:	08 c0       	rjmp	.+16     	; 0xb0c <vfprintf+0x1f6>
     afc:	60 81       	ld	r22, Z
     afe:	71 81       	ldd	r23, Z+1	; 0x01
     b00:	07 2e       	mov	r0, r23
     b02:	00 0c       	add	r0, r0
     b04:	88 0b       	sbc	r24, r24
     b06:	99 0b       	sbc	r25, r25
     b08:	0e 5f       	subi	r16, 0xFE	; 254
     b0a:	1f 4f       	sbci	r17, 0xFF	; 255
     b0c:	f3 2d       	mov	r31, r3
     b0e:	ff 76       	andi	r31, 0x6F	; 111
     b10:	3f 2e       	mov	r3, r31
     b12:	97 ff       	sbrs	r25, 7
     b14:	09 c0       	rjmp	.+18     	; 0xb28 <vfprintf+0x212>
     b16:	90 95       	com	r25
     b18:	80 95       	com	r24
     b1a:	70 95       	com	r23
     b1c:	61 95       	neg	r22
     b1e:	7f 4f       	sbci	r23, 0xFF	; 255
     b20:	8f 4f       	sbci	r24, 0xFF	; 255
     b22:	9f 4f       	sbci	r25, 0xFF	; 255
     b24:	f0 68       	ori	r31, 0x80	; 128
     b26:	3f 2e       	mov	r3, r31
     b28:	2a e0       	ldi	r18, 0x0A	; 10
     b2a:	30 e0       	ldi	r19, 0x00	; 0
     b2c:	a3 01       	movw	r20, r6
     b2e:	0e 94 02 08 	call	0x1004	; 0x1004 <__ultoa_invert>
     b32:	88 2e       	mov	r8, r24
     b34:	86 18       	sub	r8, r6
     b36:	45 c0       	rjmp	.+138    	; 0xbc2 <vfprintf+0x2ac>
     b38:	85 37       	cpi	r24, 0x75	; 117
     b3a:	31 f4       	brne	.+12     	; 0xb48 <vfprintf+0x232>
     b3c:	23 2d       	mov	r18, r3
     b3e:	2f 7e       	andi	r18, 0xEF	; 239
     b40:	b2 2e       	mov	r11, r18
     b42:	2a e0       	ldi	r18, 0x0A	; 10
     b44:	30 e0       	ldi	r19, 0x00	; 0
     b46:	25 c0       	rjmp	.+74     	; 0xb92 <vfprintf+0x27c>
     b48:	93 2d       	mov	r25, r3
     b4a:	99 7f       	andi	r25, 0xF9	; 249
     b4c:	b9 2e       	mov	r11, r25
     b4e:	8f 36       	cpi	r24, 0x6F	; 111
     b50:	c1 f0       	breq	.+48     	; 0xb82 <vfprintf+0x26c>
     b52:	18 f4       	brcc	.+6      	; 0xb5a <vfprintf+0x244>
     b54:	88 35       	cpi	r24, 0x58	; 88
     b56:	79 f0       	breq	.+30     	; 0xb76 <vfprintf+0x260>
     b58:	b5 c0       	rjmp	.+362    	; 0xcc4 <vfprintf+0x3ae>
     b5a:	80 37       	cpi	r24, 0x70	; 112
     b5c:	19 f0       	breq	.+6      	; 0xb64 <vfprintf+0x24e>
     b5e:	88 37       	cpi	r24, 0x78	; 120
     b60:	21 f0       	breq	.+8      	; 0xb6a <vfprintf+0x254>
     b62:	b0 c0       	rjmp	.+352    	; 0xcc4 <vfprintf+0x3ae>
     b64:	e9 2f       	mov	r30, r25
     b66:	e0 61       	ori	r30, 0x10	; 16
     b68:	be 2e       	mov	r11, r30
     b6a:	b4 fe       	sbrs	r11, 4
     b6c:	0d c0       	rjmp	.+26     	; 0xb88 <vfprintf+0x272>
     b6e:	fb 2d       	mov	r31, r11
     b70:	f4 60       	ori	r31, 0x04	; 4
     b72:	bf 2e       	mov	r11, r31
     b74:	09 c0       	rjmp	.+18     	; 0xb88 <vfprintf+0x272>
     b76:	34 fe       	sbrs	r3, 4
     b78:	0a c0       	rjmp	.+20     	; 0xb8e <vfprintf+0x278>
     b7a:	29 2f       	mov	r18, r25
     b7c:	26 60       	ori	r18, 0x06	; 6
     b7e:	b2 2e       	mov	r11, r18
     b80:	06 c0       	rjmp	.+12     	; 0xb8e <vfprintf+0x278>
     b82:	28 e0       	ldi	r18, 0x08	; 8
     b84:	30 e0       	ldi	r19, 0x00	; 0
     b86:	05 c0       	rjmp	.+10     	; 0xb92 <vfprintf+0x27c>
     b88:	20 e1       	ldi	r18, 0x10	; 16
     b8a:	30 e0       	ldi	r19, 0x00	; 0
     b8c:	02 c0       	rjmp	.+4      	; 0xb92 <vfprintf+0x27c>
     b8e:	20 e1       	ldi	r18, 0x10	; 16
     b90:	32 e0       	ldi	r19, 0x02	; 2
     b92:	f8 01       	movw	r30, r16
     b94:	b7 fe       	sbrs	r11, 7
     b96:	07 c0       	rjmp	.+14     	; 0xba6 <vfprintf+0x290>
     b98:	60 81       	ld	r22, Z
     b9a:	71 81       	ldd	r23, Z+1	; 0x01
     b9c:	82 81       	ldd	r24, Z+2	; 0x02
     b9e:	93 81       	ldd	r25, Z+3	; 0x03
     ba0:	0c 5f       	subi	r16, 0xFC	; 252
     ba2:	1f 4f       	sbci	r17, 0xFF	; 255
     ba4:	06 c0       	rjmp	.+12     	; 0xbb2 <vfprintf+0x29c>
     ba6:	60 81       	ld	r22, Z
     ba8:	71 81       	ldd	r23, Z+1	; 0x01
     baa:	80 e0       	ldi	r24, 0x00	; 0
     bac:	90 e0       	ldi	r25, 0x00	; 0
     bae:	0e 5f       	subi	r16, 0xFE	; 254
     bb0:	1f 4f       	sbci	r17, 0xFF	; 255
     bb2:	a3 01       	movw	r20, r6
     bb4:	0e 94 02 08 	call	0x1004	; 0x1004 <__ultoa_invert>
     bb8:	88 2e       	mov	r8, r24
     bba:	86 18       	sub	r8, r6
     bbc:	fb 2d       	mov	r31, r11
     bbe:	ff 77       	andi	r31, 0x7F	; 127
     bc0:	3f 2e       	mov	r3, r31
     bc2:	36 fe       	sbrs	r3, 6
     bc4:	0d c0       	rjmp	.+26     	; 0xbe0 <vfprintf+0x2ca>
     bc6:	23 2d       	mov	r18, r3
     bc8:	2e 7f       	andi	r18, 0xFE	; 254
     bca:	a2 2e       	mov	r10, r18
     bcc:	89 14       	cp	r8, r9
     bce:	58 f4       	brcc	.+22     	; 0xbe6 <vfprintf+0x2d0>
     bd0:	34 fe       	sbrs	r3, 4
     bd2:	0b c0       	rjmp	.+22     	; 0xbea <vfprintf+0x2d4>
     bd4:	32 fc       	sbrc	r3, 2
     bd6:	09 c0       	rjmp	.+18     	; 0xbea <vfprintf+0x2d4>
     bd8:	83 2d       	mov	r24, r3
     bda:	8e 7e       	andi	r24, 0xEE	; 238
     bdc:	a8 2e       	mov	r10, r24
     bde:	05 c0       	rjmp	.+10     	; 0xbea <vfprintf+0x2d4>
     be0:	b8 2c       	mov	r11, r8
     be2:	a3 2c       	mov	r10, r3
     be4:	03 c0       	rjmp	.+6      	; 0xbec <vfprintf+0x2d6>
     be6:	b8 2c       	mov	r11, r8
     be8:	01 c0       	rjmp	.+2      	; 0xbec <vfprintf+0x2d6>
     bea:	b9 2c       	mov	r11, r9
     bec:	a4 fe       	sbrs	r10, 4
     bee:	0f c0       	rjmp	.+30     	; 0xc0e <vfprintf+0x2f8>
     bf0:	fe 01       	movw	r30, r28
     bf2:	e8 0d       	add	r30, r8
     bf4:	f1 1d       	adc	r31, r1
     bf6:	80 81       	ld	r24, Z
     bf8:	80 33       	cpi	r24, 0x30	; 48
     bfa:	21 f4       	brne	.+8      	; 0xc04 <vfprintf+0x2ee>
     bfc:	9a 2d       	mov	r25, r10
     bfe:	99 7e       	andi	r25, 0xE9	; 233
     c00:	a9 2e       	mov	r10, r25
     c02:	09 c0       	rjmp	.+18     	; 0xc16 <vfprintf+0x300>
     c04:	a2 fe       	sbrs	r10, 2
     c06:	06 c0       	rjmp	.+12     	; 0xc14 <vfprintf+0x2fe>
     c08:	b3 94       	inc	r11
     c0a:	b3 94       	inc	r11
     c0c:	04 c0       	rjmp	.+8      	; 0xc16 <vfprintf+0x300>
     c0e:	8a 2d       	mov	r24, r10
     c10:	86 78       	andi	r24, 0x86	; 134
     c12:	09 f0       	breq	.+2      	; 0xc16 <vfprintf+0x300>
     c14:	b3 94       	inc	r11
     c16:	a3 fc       	sbrc	r10, 3
     c18:	11 c0       	rjmp	.+34     	; 0xc3c <vfprintf+0x326>
     c1a:	a0 fe       	sbrs	r10, 0
     c1c:	06 c0       	rjmp	.+12     	; 0xc2a <vfprintf+0x314>
     c1e:	b2 14       	cp	r11, r2
     c20:	88 f4       	brcc	.+34     	; 0xc44 <vfprintf+0x32e>
     c22:	28 0c       	add	r2, r8
     c24:	92 2c       	mov	r9, r2
     c26:	9b 18       	sub	r9, r11
     c28:	0e c0       	rjmp	.+28     	; 0xc46 <vfprintf+0x330>
     c2a:	b2 14       	cp	r11, r2
     c2c:	60 f4       	brcc	.+24     	; 0xc46 <vfprintf+0x330>
     c2e:	b6 01       	movw	r22, r12
     c30:	80 e2       	ldi	r24, 0x20	; 32
     c32:	90 e0       	ldi	r25, 0x00	; 0
     c34:	0e 94 c6 07 	call	0xf8c	; 0xf8c <fputc>
     c38:	b3 94       	inc	r11
     c3a:	f7 cf       	rjmp	.-18     	; 0xc2a <vfprintf+0x314>
     c3c:	b2 14       	cp	r11, r2
     c3e:	18 f4       	brcc	.+6      	; 0xc46 <vfprintf+0x330>
     c40:	2b 18       	sub	r2, r11
     c42:	02 c0       	rjmp	.+4      	; 0xc48 <vfprintf+0x332>
     c44:	98 2c       	mov	r9, r8
     c46:	21 2c       	mov	r2, r1
     c48:	a4 fe       	sbrs	r10, 4
     c4a:	10 c0       	rjmp	.+32     	; 0xc6c <vfprintf+0x356>
     c4c:	b6 01       	movw	r22, r12
     c4e:	80 e3       	ldi	r24, 0x30	; 48
     c50:	90 e0       	ldi	r25, 0x00	; 0
     c52:	0e 94 c6 07 	call	0xf8c	; 0xf8c <fputc>
     c56:	a2 fe       	sbrs	r10, 2
     c58:	17 c0       	rjmp	.+46     	; 0xc88 <vfprintf+0x372>
     c5a:	a1 fc       	sbrc	r10, 1
     c5c:	03 c0       	rjmp	.+6      	; 0xc64 <vfprintf+0x34e>
     c5e:	88 e7       	ldi	r24, 0x78	; 120
     c60:	90 e0       	ldi	r25, 0x00	; 0
     c62:	02 c0       	rjmp	.+4      	; 0xc68 <vfprintf+0x352>
     c64:	88 e5       	ldi	r24, 0x58	; 88
     c66:	90 e0       	ldi	r25, 0x00	; 0
     c68:	b6 01       	movw	r22, r12
     c6a:	0c c0       	rjmp	.+24     	; 0xc84 <vfprintf+0x36e>
     c6c:	8a 2d       	mov	r24, r10
     c6e:	86 78       	andi	r24, 0x86	; 134
     c70:	59 f0       	breq	.+22     	; 0xc88 <vfprintf+0x372>
     c72:	a1 fe       	sbrs	r10, 1
     c74:	02 c0       	rjmp	.+4      	; 0xc7a <vfprintf+0x364>
     c76:	8b e2       	ldi	r24, 0x2B	; 43
     c78:	01 c0       	rjmp	.+2      	; 0xc7c <vfprintf+0x366>
     c7a:	80 e2       	ldi	r24, 0x20	; 32
     c7c:	a7 fc       	sbrc	r10, 7
     c7e:	8d e2       	ldi	r24, 0x2D	; 45
     c80:	b6 01       	movw	r22, r12
     c82:	90 e0       	ldi	r25, 0x00	; 0
     c84:	0e 94 c6 07 	call	0xf8c	; 0xf8c <fputc>
     c88:	89 14       	cp	r8, r9
     c8a:	38 f4       	brcc	.+14     	; 0xc9a <vfprintf+0x384>
     c8c:	b6 01       	movw	r22, r12
     c8e:	80 e3       	ldi	r24, 0x30	; 48
     c90:	90 e0       	ldi	r25, 0x00	; 0
     c92:	0e 94 c6 07 	call	0xf8c	; 0xf8c <fputc>
     c96:	9a 94       	dec	r9
     c98:	f7 cf       	rjmp	.-18     	; 0xc88 <vfprintf+0x372>
     c9a:	8a 94       	dec	r8
     c9c:	f3 01       	movw	r30, r6
     c9e:	e8 0d       	add	r30, r8
     ca0:	f1 1d       	adc	r31, r1
     ca2:	80 81       	ld	r24, Z
     ca4:	b6 01       	movw	r22, r12
     ca6:	90 e0       	ldi	r25, 0x00	; 0
     ca8:	0e 94 c6 07 	call	0xf8c	; 0xf8c <fputc>
     cac:	81 10       	cpse	r8, r1
     cae:	f5 cf       	rjmp	.-22     	; 0xc9a <vfprintf+0x384>
     cb0:	22 20       	and	r2, r2
     cb2:	09 f4       	brne	.+2      	; 0xcb6 <vfprintf+0x3a0>
     cb4:	42 ce       	rjmp	.-892    	; 0x93a <vfprintf+0x24>
     cb6:	b6 01       	movw	r22, r12
     cb8:	80 e2       	ldi	r24, 0x20	; 32
     cba:	90 e0       	ldi	r25, 0x00	; 0
     cbc:	0e 94 c6 07 	call	0xf8c	; 0xf8c <fputc>
     cc0:	2a 94       	dec	r2
     cc2:	f6 cf       	rjmp	.-20     	; 0xcb0 <vfprintf+0x39a>
     cc4:	f6 01       	movw	r30, r12
     cc6:	86 81       	ldd	r24, Z+6	; 0x06
     cc8:	97 81       	ldd	r25, Z+7	; 0x07
     cca:	02 c0       	rjmp	.+4      	; 0xcd0 <vfprintf+0x3ba>
     ccc:	8f ef       	ldi	r24, 0xFF	; 255
     cce:	9f ef       	ldi	r25, 0xFF	; 255
     cd0:	2b 96       	adiw	r28, 0x0b	; 11
     cd2:	e2 e1       	ldi	r30, 0x12	; 18
     cd4:	0c 94 7c 08 	jmp	0x10f8	; 0x10f8 <__epilogue_restores__>

00000cd8 <calloc>:
     cd8:	0f 93       	push	r16
     cda:	1f 93       	push	r17
     cdc:	cf 93       	push	r28
     cde:	df 93       	push	r29
     ce0:	86 9f       	mul	r24, r22
     ce2:	80 01       	movw	r16, r0
     ce4:	87 9f       	mul	r24, r23
     ce6:	10 0d       	add	r17, r0
     ce8:	96 9f       	mul	r25, r22
     cea:	10 0d       	add	r17, r0
     cec:	11 24       	eor	r1, r1
     cee:	c8 01       	movw	r24, r16
     cf0:	0e 94 88 06 	call	0xd10	; 0xd10 <malloc>
     cf4:	ec 01       	movw	r28, r24
     cf6:	00 97       	sbiw	r24, 0x00	; 0
     cf8:	29 f0       	breq	.+10     	; 0xd04 <calloc+0x2c>
     cfa:	a8 01       	movw	r20, r16
     cfc:	60 e0       	ldi	r22, 0x00	; 0
     cfe:	70 e0       	ldi	r23, 0x00	; 0
     d00:	0e 94 b4 07 	call	0xf68	; 0xf68 <memset>
     d04:	ce 01       	movw	r24, r28
     d06:	df 91       	pop	r29
     d08:	cf 91       	pop	r28
     d0a:	1f 91       	pop	r17
     d0c:	0f 91       	pop	r16
     d0e:	08 95       	ret

00000d10 <malloc>:
     d10:	0f 93       	push	r16
     d12:	1f 93       	push	r17
     d14:	cf 93       	push	r28
     d16:	df 93       	push	r29
     d18:	82 30       	cpi	r24, 0x02	; 2
     d1a:	91 05       	cpc	r25, r1
     d1c:	10 f4       	brcc	.+4      	; 0xd22 <malloc+0x12>
     d1e:	82 e0       	ldi	r24, 0x02	; 2
     d20:	90 e0       	ldi	r25, 0x00	; 0
     d22:	e0 91 83 01 	lds	r30, 0x0183	; 0x800183 <__flp>
     d26:	f0 91 84 01 	lds	r31, 0x0184	; 0x800184 <__flp+0x1>
     d2a:	20 e0       	ldi	r18, 0x00	; 0
     d2c:	30 e0       	ldi	r19, 0x00	; 0
     d2e:	a0 e0       	ldi	r26, 0x00	; 0
     d30:	b0 e0       	ldi	r27, 0x00	; 0
     d32:	30 97       	sbiw	r30, 0x00	; 0
     d34:	19 f1       	breq	.+70     	; 0xd7c <malloc+0x6c>
     d36:	40 81       	ld	r20, Z
     d38:	51 81       	ldd	r21, Z+1	; 0x01
     d3a:	02 81       	ldd	r16, Z+2	; 0x02
     d3c:	13 81       	ldd	r17, Z+3	; 0x03
     d3e:	48 17       	cp	r20, r24
     d40:	59 07       	cpc	r21, r25
     d42:	c8 f0       	brcs	.+50     	; 0xd76 <malloc+0x66>
     d44:	84 17       	cp	r24, r20
     d46:	95 07       	cpc	r25, r21
     d48:	69 f4       	brne	.+26     	; 0xd64 <malloc+0x54>
     d4a:	10 97       	sbiw	r26, 0x00	; 0
     d4c:	31 f0       	breq	.+12     	; 0xd5a <malloc+0x4a>
     d4e:	12 96       	adiw	r26, 0x02	; 2
     d50:	0c 93       	st	X, r16
     d52:	12 97       	sbiw	r26, 0x02	; 2
     d54:	13 96       	adiw	r26, 0x03	; 3
     d56:	1c 93       	st	X, r17
     d58:	27 c0       	rjmp	.+78     	; 0xda8 <malloc+0x98>
     d5a:	00 93 83 01 	sts	0x0183, r16	; 0x800183 <__flp>
     d5e:	10 93 84 01 	sts	0x0184, r17	; 0x800184 <__flp+0x1>
     d62:	22 c0       	rjmp	.+68     	; 0xda8 <malloc+0x98>
     d64:	21 15       	cp	r18, r1
     d66:	31 05       	cpc	r19, r1
     d68:	19 f0       	breq	.+6      	; 0xd70 <malloc+0x60>
     d6a:	42 17       	cp	r20, r18
     d6c:	53 07       	cpc	r21, r19
     d6e:	18 f4       	brcc	.+6      	; 0xd76 <malloc+0x66>
     d70:	9a 01       	movw	r18, r20
     d72:	bd 01       	movw	r22, r26
     d74:	ef 01       	movw	r28, r30
     d76:	df 01       	movw	r26, r30
     d78:	f8 01       	movw	r30, r16
     d7a:	db cf       	rjmp	.-74     	; 0xd32 <malloc+0x22>
     d7c:	21 15       	cp	r18, r1
     d7e:	31 05       	cpc	r19, r1
     d80:	f9 f0       	breq	.+62     	; 0xdc0 <malloc+0xb0>
     d82:	28 1b       	sub	r18, r24
     d84:	39 0b       	sbc	r19, r25
     d86:	24 30       	cpi	r18, 0x04	; 4
     d88:	31 05       	cpc	r19, r1
     d8a:	80 f4       	brcc	.+32     	; 0xdac <malloc+0x9c>
     d8c:	8a 81       	ldd	r24, Y+2	; 0x02
     d8e:	9b 81       	ldd	r25, Y+3	; 0x03
     d90:	61 15       	cp	r22, r1
     d92:	71 05       	cpc	r23, r1
     d94:	21 f0       	breq	.+8      	; 0xd9e <malloc+0x8e>
     d96:	fb 01       	movw	r30, r22
     d98:	93 83       	std	Z+3, r25	; 0x03
     d9a:	82 83       	std	Z+2, r24	; 0x02
     d9c:	04 c0       	rjmp	.+8      	; 0xda6 <malloc+0x96>
     d9e:	90 93 84 01 	sts	0x0184, r25	; 0x800184 <__flp+0x1>
     da2:	80 93 83 01 	sts	0x0183, r24	; 0x800183 <__flp>
     da6:	fe 01       	movw	r30, r28
     da8:	32 96       	adiw	r30, 0x02	; 2
     daa:	44 c0       	rjmp	.+136    	; 0xe34 <malloc+0x124>
     dac:	fe 01       	movw	r30, r28
     dae:	e2 0f       	add	r30, r18
     db0:	f3 1f       	adc	r31, r19
     db2:	81 93       	st	Z+, r24
     db4:	91 93       	st	Z+, r25
     db6:	22 50       	subi	r18, 0x02	; 2
     db8:	31 09       	sbc	r19, r1
     dba:	39 83       	std	Y+1, r19	; 0x01
     dbc:	28 83       	st	Y, r18
     dbe:	3a c0       	rjmp	.+116    	; 0xe34 <malloc+0x124>
     dc0:	20 91 81 01 	lds	r18, 0x0181	; 0x800181 <__brkval>
     dc4:	30 91 82 01 	lds	r19, 0x0182	; 0x800182 <__brkval+0x1>
     dc8:	23 2b       	or	r18, r19
     dca:	41 f4       	brne	.+16     	; 0xddc <malloc+0xcc>
     dcc:	20 91 02 01 	lds	r18, 0x0102	; 0x800102 <__malloc_heap_start>
     dd0:	30 91 03 01 	lds	r19, 0x0103	; 0x800103 <__malloc_heap_start+0x1>
     dd4:	30 93 82 01 	sts	0x0182, r19	; 0x800182 <__brkval+0x1>
     dd8:	20 93 81 01 	sts	0x0181, r18	; 0x800181 <__brkval>
     ddc:	20 91 00 01 	lds	r18, 0x0100	; 0x800100 <__DATA_REGION_ORIGIN__>
     de0:	30 91 01 01 	lds	r19, 0x0101	; 0x800101 <__DATA_REGION_ORIGIN__+0x1>
     de4:	21 15       	cp	r18, r1
     de6:	31 05       	cpc	r19, r1
     de8:	41 f4       	brne	.+16     	; 0xdfa <malloc+0xea>
     dea:	2d b7       	in	r18, 0x3d	; 61
     dec:	3e b7       	in	r19, 0x3e	; 62
     dee:	40 91 04 01 	lds	r20, 0x0104	; 0x800104 <__malloc_margin>
     df2:	50 91 05 01 	lds	r21, 0x0105	; 0x800105 <__malloc_margin+0x1>
     df6:	24 1b       	sub	r18, r20
     df8:	35 0b       	sbc	r19, r21
     dfa:	e0 91 81 01 	lds	r30, 0x0181	; 0x800181 <__brkval>
     dfe:	f0 91 82 01 	lds	r31, 0x0182	; 0x800182 <__brkval+0x1>
     e02:	e2 17       	cp	r30, r18
     e04:	f3 07       	cpc	r31, r19
     e06:	a0 f4       	brcc	.+40     	; 0xe30 <malloc+0x120>
     e08:	2e 1b       	sub	r18, r30
     e0a:	3f 0b       	sbc	r19, r31
     e0c:	28 17       	cp	r18, r24
     e0e:	39 07       	cpc	r19, r25
     e10:	78 f0       	brcs	.+30     	; 0xe30 <malloc+0x120>
     e12:	ac 01       	movw	r20, r24
     e14:	4e 5f       	subi	r20, 0xFE	; 254
     e16:	5f 4f       	sbci	r21, 0xFF	; 255
     e18:	24 17       	cp	r18, r20
     e1a:	35 07       	cpc	r19, r21
     e1c:	48 f0       	brcs	.+18     	; 0xe30 <malloc+0x120>
     e1e:	4e 0f       	add	r20, r30
     e20:	5f 1f       	adc	r21, r31
     e22:	50 93 82 01 	sts	0x0182, r21	; 0x800182 <__brkval+0x1>
     e26:	40 93 81 01 	sts	0x0181, r20	; 0x800181 <__brkval>
     e2a:	81 93       	st	Z+, r24
     e2c:	91 93       	st	Z+, r25
     e2e:	02 c0       	rjmp	.+4      	; 0xe34 <malloc+0x124>
     e30:	e0 e0       	ldi	r30, 0x00	; 0
     e32:	f0 e0       	ldi	r31, 0x00	; 0
     e34:	cf 01       	movw	r24, r30
     e36:	df 91       	pop	r29
     e38:	cf 91       	pop	r28
     e3a:	1f 91       	pop	r17
     e3c:	0f 91       	pop	r16
     e3e:	08 95       	ret

00000e40 <free>:
     e40:	cf 93       	push	r28
     e42:	df 93       	push	r29
     e44:	00 97       	sbiw	r24, 0x00	; 0
     e46:	09 f4       	brne	.+2      	; 0xe4a <free+0xa>
     e48:	81 c0       	rjmp	.+258    	; 0xf4c <free+0x10c>
     e4a:	fc 01       	movw	r30, r24
     e4c:	32 97       	sbiw	r30, 0x02	; 2
     e4e:	13 82       	std	Z+3, r1	; 0x03
     e50:	12 82       	std	Z+2, r1	; 0x02
     e52:	a0 91 83 01 	lds	r26, 0x0183	; 0x800183 <__flp>
     e56:	b0 91 84 01 	lds	r27, 0x0184	; 0x800184 <__flp+0x1>
     e5a:	10 97       	sbiw	r26, 0x00	; 0
     e5c:	81 f4       	brne	.+32     	; 0xe7e <free+0x3e>
     e5e:	20 81       	ld	r18, Z
     e60:	31 81       	ldd	r19, Z+1	; 0x01
     e62:	82 0f       	add	r24, r18
     e64:	93 1f       	adc	r25, r19
     e66:	20 91 81 01 	lds	r18, 0x0181	; 0x800181 <__brkval>
     e6a:	30 91 82 01 	lds	r19, 0x0182	; 0x800182 <__brkval+0x1>
     e6e:	28 17       	cp	r18, r24
     e70:	39 07       	cpc	r19, r25
     e72:	51 f5       	brne	.+84     	; 0xec8 <free+0x88>
     e74:	f0 93 82 01 	sts	0x0182, r31	; 0x800182 <__brkval+0x1>
     e78:	e0 93 81 01 	sts	0x0181, r30	; 0x800181 <__brkval>
     e7c:	67 c0       	rjmp	.+206    	; 0xf4c <free+0x10c>
     e7e:	ed 01       	movw	r28, r26
     e80:	20 e0       	ldi	r18, 0x00	; 0
     e82:	30 e0       	ldi	r19, 0x00	; 0
     e84:	ce 17       	cp	r28, r30
     e86:	df 07       	cpc	r29, r31
     e88:	40 f4       	brcc	.+16     	; 0xe9a <free+0x5a>
     e8a:	4a 81       	ldd	r20, Y+2	; 0x02
     e8c:	5b 81       	ldd	r21, Y+3	; 0x03
     e8e:	9e 01       	movw	r18, r28
     e90:	41 15       	cp	r20, r1
     e92:	51 05       	cpc	r21, r1
     e94:	f1 f0       	breq	.+60     	; 0xed2 <free+0x92>
     e96:	ea 01       	movw	r28, r20
     e98:	f5 cf       	rjmp	.-22     	; 0xe84 <free+0x44>
     e9a:	d3 83       	std	Z+3, r29	; 0x03
     e9c:	c2 83       	std	Z+2, r28	; 0x02
     e9e:	40 81       	ld	r20, Z
     ea0:	51 81       	ldd	r21, Z+1	; 0x01
     ea2:	84 0f       	add	r24, r20
     ea4:	95 1f       	adc	r25, r21
     ea6:	c8 17       	cp	r28, r24
     ea8:	d9 07       	cpc	r29, r25
     eaa:	59 f4       	brne	.+22     	; 0xec2 <free+0x82>
     eac:	88 81       	ld	r24, Y
     eae:	99 81       	ldd	r25, Y+1	; 0x01
     eb0:	84 0f       	add	r24, r20
     eb2:	95 1f       	adc	r25, r21
     eb4:	02 96       	adiw	r24, 0x02	; 2
     eb6:	91 83       	std	Z+1, r25	; 0x01
     eb8:	80 83       	st	Z, r24
     eba:	8a 81       	ldd	r24, Y+2	; 0x02
     ebc:	9b 81       	ldd	r25, Y+3	; 0x03
     ebe:	93 83       	std	Z+3, r25	; 0x03
     ec0:	82 83       	std	Z+2, r24	; 0x02
     ec2:	21 15       	cp	r18, r1
     ec4:	31 05       	cpc	r19, r1
     ec6:	29 f4       	brne	.+10     	; 0xed2 <free+0x92>
     ec8:	f0 93 84 01 	sts	0x0184, r31	; 0x800184 <__flp+0x1>
     ecc:	e0 93 83 01 	sts	0x0183, r30	; 0x800183 <__flp>
     ed0:	3d c0       	rjmp	.+122    	; 0xf4c <free+0x10c>
     ed2:	e9 01       	movw	r28, r18
     ed4:	fb 83       	std	Y+3, r31	; 0x03
     ed6:	ea 83       	std	Y+2, r30	; 0x02
     ed8:	49 91       	ld	r20, Y+
     eda:	59 91       	ld	r21, Y+
     edc:	c4 0f       	add	r28, r20
     ede:	d5 1f       	adc	r29, r21
     ee0:	ec 17       	cp	r30, r28
     ee2:	fd 07       	cpc	r31, r29
     ee4:	61 f4       	brne	.+24     	; 0xefe <free+0xbe>
     ee6:	80 81       	ld	r24, Z
     ee8:	91 81       	ldd	r25, Z+1	; 0x01
     eea:	84 0f       	add	r24, r20
     eec:	95 1f       	adc	r25, r21
     eee:	02 96       	adiw	r24, 0x02	; 2
     ef0:	e9 01       	movw	r28, r18
     ef2:	99 83       	std	Y+1, r25	; 0x01
     ef4:	88 83       	st	Y, r24
     ef6:	82 81       	ldd	r24, Z+2	; 0x02
     ef8:	93 81       	ldd	r25, Z+3	; 0x03
     efa:	9b 83       	std	Y+3, r25	; 0x03
     efc:	8a 83       	std	Y+2, r24	; 0x02
     efe:	e0 e0       	ldi	r30, 0x00	; 0
     f00:	f0 e0       	ldi	r31, 0x00	; 0
     f02:	12 96       	adiw	r26, 0x02	; 2
     f04:	8d 91       	ld	r24, X+
     f06:	9c 91       	ld	r25, X
     f08:	13 97       	sbiw	r26, 0x03	; 3
     f0a:	00 97       	sbiw	r24, 0x00	; 0
     f0c:	19 f0       	breq	.+6      	; 0xf14 <free+0xd4>
     f0e:	fd 01       	movw	r30, r26
     f10:	dc 01       	movw	r26, r24
     f12:	f7 cf       	rjmp	.-18     	; 0xf02 <free+0xc2>
     f14:	8d 91       	ld	r24, X+
     f16:	9c 91       	ld	r25, X
     f18:	11 97       	sbiw	r26, 0x01	; 1
     f1a:	9d 01       	movw	r18, r26
     f1c:	2e 5f       	subi	r18, 0xFE	; 254
     f1e:	3f 4f       	sbci	r19, 0xFF	; 255
     f20:	82 0f       	add	r24, r18
     f22:	93 1f       	adc	r25, r19
     f24:	20 91 81 01 	lds	r18, 0x0181	; 0x800181 <__brkval>
     f28:	30 91 82 01 	lds	r19, 0x0182	; 0x800182 <__brkval+0x1>
     f2c:	28 17       	cp	r18, r24
     f2e:	39 07       	cpc	r19, r25
     f30:	69 f4       	brne	.+26     	; 0xf4c <free+0x10c>
     f32:	30 97       	sbiw	r30, 0x00	; 0
     f34:	29 f4       	brne	.+10     	; 0xf40 <free+0x100>
     f36:	10 92 84 01 	sts	0x0184, r1	; 0x800184 <__flp+0x1>
     f3a:	10 92 83 01 	sts	0x0183, r1	; 0x800183 <__flp>
     f3e:	02 c0       	rjmp	.+4      	; 0xf44 <free+0x104>
     f40:	13 82       	std	Z+3, r1	; 0x03
     f42:	12 82       	std	Z+2, r1	; 0x02
     f44:	b0 93 82 01 	sts	0x0182, r27	; 0x800182 <__brkval+0x1>
     f48:	a0 93 81 01 	sts	0x0181, r26	; 0x800181 <__brkval>
     f4c:	df 91       	pop	r29
     f4e:	cf 91       	pop	r28
     f50:	08 95       	ret

00000f52 <strnlen_P>:
     f52:	fc 01       	movw	r30, r24
     f54:	05 90       	lpm	r0, Z+
     f56:	61 50       	subi	r22, 0x01	; 1
     f58:	70 40       	sbci	r23, 0x00	; 0
     f5a:	01 10       	cpse	r0, r1
     f5c:	d8 f7       	brcc	.-10     	; 0xf54 <strnlen_P+0x2>
     f5e:	80 95       	com	r24
     f60:	90 95       	com	r25
     f62:	8e 0f       	add	r24, r30
     f64:	9f 1f       	adc	r25, r31
     f66:	08 95       	ret

00000f68 <memset>:
     f68:	dc 01       	movw	r26, r24
     f6a:	01 c0       	rjmp	.+2      	; 0xf6e <memset+0x6>
     f6c:	6d 93       	st	X+, r22
     f6e:	41 50       	subi	r20, 0x01	; 1
     f70:	50 40       	sbci	r21, 0x00	; 0
     f72:	e0 f7       	brcc	.-8      	; 0xf6c <memset+0x4>
     f74:	08 95       	ret

00000f76 <strnlen>:
     f76:	fc 01       	movw	r30, r24
     f78:	61 50       	subi	r22, 0x01	; 1
     f7a:	70 40       	sbci	r23, 0x00	; 0
     f7c:	01 90       	ld	r0, Z+
     f7e:	01 10       	cpse	r0, r1
     f80:	d8 f7       	brcc	.-10     	; 0xf78 <strnlen+0x2>
     f82:	80 95       	com	r24
     f84:	90 95       	com	r25
     f86:	8e 0f       	add	r24, r30
     f88:	9f 1f       	adc	r25, r31
     f8a:	08 95       	ret

00000f8c <fputc>:
     f8c:	0f 93       	push	r16
     f8e:	1f 93       	push	r17
     f90:	cf 93       	push	r28
     f92:	df 93       	push	r29
     f94:	fb 01       	movw	r30, r22
     f96:	23 81       	ldd	r18, Z+3	; 0x03
     f98:	21 fd       	sbrc	r18, 1
     f9a:	03 c0       	rjmp	.+6      	; 0xfa2 <fputc+0x16>
     f9c:	8f ef       	ldi	r24, 0xFF	; 255
     f9e:	9f ef       	ldi	r25, 0xFF	; 255
     fa0:	2c c0       	rjmp	.+88     	; 0xffa <fputc+0x6e>
     fa2:	22 ff       	sbrs	r18, 2
     fa4:	16 c0       	rjmp	.+44     	; 0xfd2 <fputc+0x46>
     fa6:	46 81       	ldd	r20, Z+6	; 0x06
     fa8:	57 81       	ldd	r21, Z+7	; 0x07
     faa:	24 81       	ldd	r18, Z+4	; 0x04
     fac:	35 81       	ldd	r19, Z+5	; 0x05
     fae:	42 17       	cp	r20, r18
     fb0:	53 07       	cpc	r21, r19
     fb2:	44 f4       	brge	.+16     	; 0xfc4 <fputc+0x38>
     fb4:	a0 81       	ld	r26, Z
     fb6:	b1 81       	ldd	r27, Z+1	; 0x01
     fb8:	9d 01       	movw	r18, r26
     fba:	2f 5f       	subi	r18, 0xFF	; 255
     fbc:	3f 4f       	sbci	r19, 0xFF	; 255
     fbe:	31 83       	std	Z+1, r19	; 0x01
     fc0:	20 83       	st	Z, r18
     fc2:	8c 93       	st	X, r24
     fc4:	26 81       	ldd	r18, Z+6	; 0x06
     fc6:	37 81       	ldd	r19, Z+7	; 0x07
     fc8:	2f 5f       	subi	r18, 0xFF	; 255
     fca:	3f 4f       	sbci	r19, 0xFF	; 255
     fcc:	37 83       	std	Z+7, r19	; 0x07
     fce:	26 83       	std	Z+6, r18	; 0x06
     fd0:	14 c0       	rjmp	.+40     	; 0xffa <fputc+0x6e>
     fd2:	8b 01       	movw	r16, r22
     fd4:	ec 01       	movw	r28, r24
     fd6:	fb 01       	movw	r30, r22
     fd8:	00 84       	ldd	r0, Z+8	; 0x08
     fda:	f1 85       	ldd	r31, Z+9	; 0x09
     fdc:	e0 2d       	mov	r30, r0
     fde:	09 95       	icall
     fe0:	89 2b       	or	r24, r25
     fe2:	e1 f6       	brne	.-72     	; 0xf9c <fputc+0x10>
     fe4:	d8 01       	movw	r26, r16
     fe6:	16 96       	adiw	r26, 0x06	; 6
     fe8:	8d 91       	ld	r24, X+
     fea:	9c 91       	ld	r25, X
     fec:	17 97       	sbiw	r26, 0x07	; 7
     fee:	01 96       	adiw	r24, 0x01	; 1
     ff0:	17 96       	adiw	r26, 0x07	; 7
     ff2:	9c 93       	st	X, r25
     ff4:	8e 93       	st	-X, r24
     ff6:	16 97       	sbiw	r26, 0x06	; 6
     ff8:	ce 01       	movw	r24, r28
     ffa:	df 91       	pop	r29
     ffc:	cf 91       	pop	r28
     ffe:	1f 91       	pop	r17
    1000:	0f 91       	pop	r16
    1002:	08 95       	ret

00001004 <__ultoa_invert>:
    1004:	fa 01       	movw	r30, r20
    1006:	aa 27       	eor	r26, r26
    1008:	28 30       	cpi	r18, 0x08	; 8
    100a:	51 f1       	breq	.+84     	; 0x1060 <__ultoa_invert+0x5c>
    100c:	20 31       	cpi	r18, 0x10	; 16
    100e:	81 f1       	breq	.+96     	; 0x1070 <__ultoa_invert+0x6c>
    1010:	e8 94       	clt
    1012:	6f 93       	push	r22
    1014:	6e 7f       	andi	r22, 0xFE	; 254
    1016:	6e 5f       	subi	r22, 0xFE	; 254
    1018:	7f 4f       	sbci	r23, 0xFF	; 255
    101a:	8f 4f       	sbci	r24, 0xFF	; 255
    101c:	9f 4f       	sbci	r25, 0xFF	; 255
    101e:	af 4f       	sbci	r26, 0xFF	; 255
    1020:	b1 e0       	ldi	r27, 0x01	; 1
    1022:	3e d0       	rcall	.+124    	; 0x10a0 <__ultoa_invert+0x9c>
    1024:	b4 e0       	ldi	r27, 0x04	; 4
    1026:	3c d0       	rcall	.+120    	; 0x10a0 <__ultoa_invert+0x9c>
    1028:	67 0f       	add	r22, r23
    102a:	78 1f       	adc	r23, r24
    102c:	89 1f       	adc	r24, r25
    102e:	9a 1f       	adc	r25, r26
    1030:	a1 1d       	adc	r26, r1
    1032:	68 0f       	add	r22, r24
    1034:	79 1f       	adc	r23, r25
    1036:	8a 1f       	adc	r24, r26
    1038:	91 1d       	adc	r25, r1
    103a:	a1 1d       	adc	r26, r1
    103c:	6a 0f       	add	r22, r26
    103e:	71 1d       	adc	r23, r1
    1040:	81 1d       	adc	r24, r1
    1042:	91 1d       	adc	r25, r1
    1044:	a1 1d       	adc	r26, r1
    1046:	20 d0       	rcall	.+64     	; 0x1088 <__ultoa_invert+0x84>
    1048:	09 f4       	brne	.+2      	; 0x104c <__ultoa_invert+0x48>
    104a:	68 94       	set
    104c:	3f 91       	pop	r19
    104e:	2a e0       	ldi	r18, 0x0A	; 10
    1050:	26 9f       	mul	r18, r22
    1052:	11 24       	eor	r1, r1
    1054:	30 19       	sub	r19, r0
    1056:	30 5d       	subi	r19, 0xD0	; 208
    1058:	31 93       	st	Z+, r19
    105a:	de f6       	brtc	.-74     	; 0x1012 <__ultoa_invert+0xe>
    105c:	cf 01       	movw	r24, r30
    105e:	08 95       	ret
    1060:	46 2f       	mov	r20, r22
    1062:	47 70       	andi	r20, 0x07	; 7
    1064:	40 5d       	subi	r20, 0xD0	; 208
    1066:	41 93       	st	Z+, r20
    1068:	b3 e0       	ldi	r27, 0x03	; 3
    106a:	0f d0       	rcall	.+30     	; 0x108a <__ultoa_invert+0x86>
    106c:	c9 f7       	brne	.-14     	; 0x1060 <__ultoa_invert+0x5c>
    106e:	f6 cf       	rjmp	.-20     	; 0x105c <__ultoa_invert+0x58>
    1070:	46 2f       	mov	r20, r22
    1072:	4f 70       	andi	r20, 0x0F	; 15
    1074:	40 5d       	subi	r20, 0xD0	; 208
    1076:	4a 33       	cpi	r20, 0x3A	; 58
    1078:	18 f0       	brcs	.+6      	; 0x1080 <__ultoa_invert+0x7c>
    107a:	49 5d       	subi	r20, 0xD9	; 217
    107c:	31 fd       	sbrc	r19, 1
    107e:	40 52       	subi	r20, 0x20	; 32
    1080:	41 93       	st	Z+, r20
    1082:	02 d0       	rcall	.+4      	; 0x1088 <__ultoa_invert+0x84>
    1084:	a9 f7       	brne	.-22     	; 0x1070 <__ultoa_invert+0x6c>
    1086:	ea cf       	rjmp	.-44     	; 0x105c <__ultoa_invert+0x58>
    1088:	b4 e0       	ldi	r27, 0x04	; 4
    108a:	a6 95       	lsr	r26
    108c:	97 95       	ror	r25
    108e:	87 95       	ror	r24
    1090:	77 95       	ror	r23
    1092:	67 95       	ror	r22
    1094:	ba 95       	dec	r27
    1096:	c9 f7       	brne	.-14     	; 0x108a <__ultoa_invert+0x86>
    1098:	00 97       	sbiw	r24, 0x00	; 0
    109a:	61 05       	cpc	r22, r1
    109c:	71 05       	cpc	r23, r1
    109e:	08 95       	ret
    10a0:	9b 01       	movw	r18, r22
    10a2:	ac 01       	movw	r20, r24
    10a4:	0a 2e       	mov	r0, r26
    10a6:	06 94       	lsr	r0
    10a8:	57 95       	ror	r21
    10aa:	47 95       	ror	r20
    10ac:	37 95       	ror	r19
    10ae:	27 95       	ror	r18
    10b0:	ba 95       	dec	r27
    10b2:	c9 f7       	brne	.-14     	; 0x10a6 <__ultoa_invert+0xa2>
    10b4:	62 0f       	add	r22, r18
    10b6:	73 1f       	adc	r23, r19
    10b8:	84 1f       	adc	r24, r20
    10ba:	95 1f       	adc	r25, r21
    10bc:	a0 1d       	adc	r26, r0
    10be:	08 95       	ret

000010c0 <__prologue_saves__>:
    10c0:	2f 92       	push	r2
    10c2:	3f 92       	push	r3
    10c4:	4f 92       	push	r4
    10c6:	5f 92       	push	r5
    10c8:	6f 92       	push	r6
    10ca:	7f 92       	push	r7
    10cc:	8f 92       	push	r8
    10ce:	9f 92       	push	r9
    10d0:	af 92       	push	r10
    10d2:	bf 92       	push	r11
    10d4:	cf 92       	push	r12
    10d6:	df 92       	push	r13
    10d8:	ef 92       	push	r14
    10da:	ff 92       	push	r15
    10dc:	0f 93       	push	r16
    10de:	1f 93       	push	r17
    10e0:	cf 93       	push	r28
    10e2:	df 93       	push	r29
    10e4:	cd b7       	in	r28, 0x3d	; 61
    10e6:	de b7       	in	r29, 0x3e	; 62
    10e8:	ca 1b       	sub	r28, r26
    10ea:	db 0b       	sbc	r29, r27
    10ec:	0f b6       	in	r0, 0x3f	; 63
    10ee:	f8 94       	cli
    10f0:	de bf       	out	0x3e, r29	; 62
    10f2:	0f be       	out	0x3f, r0	; 63
    10f4:	cd bf       	out	0x3d, r28	; 61
    10f6:	09 94       	ijmp

000010f8 <__epilogue_restores__>:
    10f8:	2a 88       	ldd	r2, Y+18	; 0x12
    10fa:	39 88       	ldd	r3, Y+17	; 0x11
    10fc:	48 88       	ldd	r4, Y+16	; 0x10
    10fe:	5f 84       	ldd	r5, Y+15	; 0x0f
    1100:	6e 84       	ldd	r6, Y+14	; 0x0e
    1102:	7d 84       	ldd	r7, Y+13	; 0x0d
    1104:	8c 84       	ldd	r8, Y+12	; 0x0c
    1106:	9b 84       	ldd	r9, Y+11	; 0x0b
    1108:	aa 84       	ldd	r10, Y+10	; 0x0a
    110a:	b9 84       	ldd	r11, Y+9	; 0x09
    110c:	c8 84       	ldd	r12, Y+8	; 0x08
    110e:	df 80       	ldd	r13, Y+7	; 0x07
    1110:	ee 80       	ldd	r14, Y+6	; 0x06
    1112:	fd 80       	ldd	r15, Y+5	; 0x05
    1114:	0c 81       	ldd	r16, Y+4	; 0x04
    1116:	1b 81       	ldd	r17, Y+3	; 0x03
    1118:	aa 81       	ldd	r26, Y+2	; 0x02
    111a:	b9 81       	ldd	r27, Y+1	; 0x01
    111c:	ce 0f       	add	r28, r30
    111e:	d1 1d       	adc	r29, r1
    1120:	0f b6       	in	r0, 0x3f	; 63
    1122:	f8 94       	cli
    1124:	de bf       	out	0x3e, r29	; 62
    1126:	0f be       	out	0x3f, r0	; 63
    1128:	cd bf       	out	0x3d, r28	; 61
    112a:	ed 01       	movw	r28, r26
    112c:	08 95       	ret

0000112e <_exit>:
    112e:	f8 94       	cli

00001130 <__stop_program>:
    1130:	ff cf       	rjmp	.-2      	; 0x1130 <__stop_program>
